(lp0
Vtramcarjobs
p1
aVYS
p2
aVBrianDEvans
p3
aVAlborzToofani
p4
aVPaks_Gallery
p5
aVModernArtLove
p6
aVNooshinZarinmeh
p7
aVHyperUpLLC
p8
aVNetaiDas14
p9
aVhappyvoice927
p10
aVLenovoCanada
p11
aVelliesalthouse
p12
aVhabito
p13
aVRealZenDigital
p14
aVInsideTracker
p15
aVSTACPerformance
p16
aVsimonpmorley
p17
aVchamberadvocacy
p18
aVjamiewilks22
p19
aVAndreAbiAwad
p20
aVKY8cM1POP20jR33
p21
aVNaveedH1980
p22
aVCoupa
p23
aVdealwheelapp
p24
aVultrarunvegan
p25
aVSalienceGus
p26
aVOUTRace_ON
p27
aVPaiman_Vahdati
p28
aVGrootPoof
p29
aVericfrodgers
p30
aVJesse_Henry
p31
aVVersionSports
p32
aVexpresshomeca
p33
aVIURAN1803
p34
aVmichaelriedler
p35
aVIrelandBurger
p36
aVweek_motivation
p37
aV_medichem
p38
aVBBGOnline
p39
aVTheTechOff
p40
aVhashtag_sme
p41
aVDesNiagaraFalls
p42
aVnameyourrent
p43
aVHamandi74
p44
aVaasimkh
p45
aVkevinballantyne
p46
aVCLAUDIO48346217
p47
aVguelphtriclub
p48
aVManasRa94675281
p49
aVAlamAshfaq
p50
aVJoannTayl
p51
aVTimHaines
p52
aVXeratekUAE
p53
aVanasebrahem
p54
aVKennethHitchner
p55
aVwareagle1999
p56
aVmoeghashim
p57
aVBOLDtalks
p58
aVSticksStonesRun
p59
aV11thhourLiving
p60
aVveganultrarun
p61
aVLastAvengerCome
p62
aVintcore
p63
aVrylinSlevi
p64
aVHakimMerah
p65
aVRobooxApp
p66
aVpropertylinker1
p67
aVelekta_gulf
p68
aVAMohamedIsmai11
p69
aVswissbusiness
p70
aVUgandaMarathon
p71
aVFootstepComms
p72
aVihorizonUK
p73
aVMoroccanMoe
p74
aVmikedaves
p75
aVqclassified1
p76
aVBeckDanaher
p77
aVFullBarOfStars
p78
aVososwisdom
p79
aVdhanrajarokiyar
p80
aVNawaya
p81
aVabdallahtw
p82
aVbrooks_says
p83
aVAraceliRose732
p84
aVlinkedtalents
p85
aVaddictundefeat
p86
aVGyan23793203
p87
aVkeane_lynn
p88
aVdiscovered_ae
p89
aVtigertailusa
p90
aVmissabudhabi
p91
aVjengroff
p92
aVBryanSK10
p93
aVJamisonSteeve
p94
aVSelamNews
p95
aVmywaoola
p96
aVtechwaterloo
p97
aVzopistyle
p98
aVOrangemud
p99
aVVoodooPark
p100
aVFatFuckIssues1
p101
aVDCinKW
p102
aVam_audit
p103
aVzeeshanraheem1
p104
aVKirkBean
p105
aVimranomar
p106
aVKelvinpilibaba
p107
aVTasteofAbuDhabi
p108
aVdavidkaaron
p109
aVnuyoucenter
p110
aVtwopac
p111
aVMushroom_Holsey
p112
aVsweta_kanoria
p113
aVAbubakarafunsh1
p114
aVjcdnurture
p115
aVDoctoradam1
p116
aVdivyaviswanath
p117
aVS1SgCpA90j0VGv4
p118
aVKrysiaJ
p119
aVSantossJoilson
p120
aVOliverChristie
p121
aVmutaz_sakkejha
p122
aVimpetus_ecom
p123
aVMMA_JMB
p124
aVCorpStation
p125
aVNaickAbswai
p126
aVKBroncate
p127
aValaahabeb00
p128
aVgarajkumarnair
p129
aVtrilovesports
p130
aVbaghdadtechwadi
p131
aVsalmanaslam25
p132
aVjobrietbergen
p133
aVqueendetudo
p134
aVmebwini
p135
aVmaher_akra
p136
aVSolutionLoft
p137
aVHamadAliAlthan7
p138
aVtarmoh
p139
aVaskme1981
p140
aVGoravBhootra
p141
aVElkinSupply
p142
aVcollinsyebila
p143
aVPTFurniture1
p144
aVreipoco
p145
aVfuadada
p146
aVRKreuzeder
p147
aVINFINITCanada
p148
aVtosseduae
p149
aVMarcusTomiuk
p150
aVjackson_kay
p151
aVivideoo
p152
aVselampeople
p153
aVTheFabulousSo
p154
aVallstarsanmateo
p155
aVsmartdealson
p156
aVBingeCrosby
p157
aVahmed____288
p158
aVsarfarazali2688
p159
aVlarrykim
p160
aVbkka_69
p161
aVmunuvenkatesans
p162
aVHeloForAll
p163
aVZakField
p164
aVjaynathan
p165
aVAbignailJackson
p166
aVRoadRaceResults
p167
aVNacherStore
p168
aVDIBBSLife
p169
aVi_loveadventure
p170
aVHornsbySylvia
p171
aVKhaledJalanbo
p172
aVtriathlonbryan
p173
aVWaterloo_WIN
p174
aVleahjcarr
p175
aVAdvStoreCanada
p176
aVNaylaAlkhaja
p177
aVAbriArqam
p178
aVDonBurtonH2O
p179
aVThinxTank
p180
aVTEAMLTD_DXB
p181
aVGetTLWR
p182
aVAMB15720889
p183
aVdubaimodelgirls
p184
aVmahmooha711
p185
aVNambiRajanBjpTN
p186
aVAsPuuqtVrCGyVip
p187
aVBrandStoriesCH
p188
aVmwcorbett
p189
aVBreatheSales
p190
aVMinnieKiss2
p191
aVemberscreencast
p192
aVEliyaMwakalebe2
p193
aVAZIZACOMMS
p194
aVbrianspainSD
p195
aVGazmendZ
p196
aVMona21188355
p197
aVUpscaleUK
p198
aVsouha_d
p199
aVInformita
p200
aVjasonanson
p201
aVChris_iExcel
p202
aVdavid_lial
p203
aVBrionyGunson
p204
aVJacobzawaq
p205
aVEG_ENTERPRENEUR
p206
aVSKIIOT
p207
aVcurfercoach
p208
aValepmiranda
p209
aVNickohlye
p210
aVthepressfarm
p211
aVnicespys
p212
aVjsmarketingcom
p213
aVwootric
p214
aVTeamAquatic
p215
aVGoodIdeaPetShop
p216
aVLiuYang57
p217
aV500europe
p218
aValoleiw
p219
aVcnicolaou
p220
aVSaeedBaygi
p221
aVthatbook_shelf
p222
aVlavina_ebez
p223
aVandyy
p224
aViam_benn
p225
aVAdamChandler
p226
aVmyrunningdeals
p227
aVhervehm
p228
aVWaleed888
p229
aVfayu93
p230
aVJuniorGuerino
p231
aVbeaulaskey
p232
aVTheRevenueU
p233
aVsangu_matur
p234
aVRamzyis
p235
aVNorwichCarol
p236
aVAmdresillo
p237
aVJumpStart_Dubai
p238
aVdania_ism
p239
aVbuildmetric
p240
aVcleytinhocap
p241
aVJoeDelafontaine
p242
aVCarltonDowntown
p243
aVdavidclizbe
p244
aVansarishoaib762
p245
aValnasnews
p246
aVStepan20017
p247
aVpayyodtem9
p248
aVJenLeighMoss
p249
aVCrimpsCC
p250
aValex_birdi
p251
aVSimonball37
p252
aVgillymegan
p253
aVBucukErma
p254
aVtheymakedesign
p255
aVHyColin
p256
aVblingboorsma
p257
aVGuelphFire4MD
p258
aVshareer12345
p259
aVZohennyGarcia
p260
aVStartUpsMkt
p261
aVelsasaid
p262
aVhadito_m
p263
aV_StartupUAE
p264
aVBusinessPartnrs
p265
aVmtntandem
p266
aVtheboy74
p267
aVthelocalfood
p268
aVtherobcampbell
p269
aVFlowWisdom
p270
aVShahilAshfaq
p271
aVdurgachauhan17
p272
aVgregmushen
p273
aVshieldfy
p274
aVHerbertRSim
p275
aVsmcnabscott
p276
aVTDarisi
p277
aVRaechelleDev
p278
aVMatazar
p279
aVAshleySeija
p280
aVDana_Keller
p281
aVSpicyM0use
p282
aVevolveKat
p283
aVkarl_d_baader
p284
aVDrJulieGill
p285
aVwyshingwelll
p286
aVmiddleeastevent
p287
aVBNanza
p288
aVapmcdo
p289
aVSuzanneBone
p290
aVCorgisAndKMs
p291
aVGuelphmomsandco
p292
aVScottCoburn10
p293
aVedgarmercer
p294
aVGuelph4Syria
p295
aVjborthwik
p296
aVebpeachykeen
p297
aVCamGuthrie
p298
aVpjhalliwell
p299
aVlucyleid
p300
aVsuzerwebs
p301
aVwarm_leaves
p302
aVIKuruvantheri
p303
aVtherunningworks
p304
aVsineadjax
p305
aVAlifmeemDigital
p306
aV_Jaibles
p307
aVandythequizzer
p308
aVDilgilioMy
p309
aVAlanaGulkaAT
p310
aVem_bouchard
p311
aVtlrowanrmt
p312
aVThat_Chill
p313
aVNJGoss
p314
aVCaitlovesguelph
p315
aVfriendsmycloset
p316
aVJessicaLChalk
p317
aVpolishem
p318
aVquickcardguy
p319
aVjerushiaA
p320
aVKirstenElaine8
p321
aVFlow_Crystal
p322
aVnadine_compton
p323
aVseedgirl
p324
aVstaceymdunnigan
p325
aVkatiealayagreen
p326
aVdp2design
p327
aVmrskchar
p328
aVfresh_insights
p329
aVglennask
p330
aVguitarcitieslon
p331
aVluxuriestoday
p332
aVovif2011
p333
aVLocalsFollowed
p334
aVsharadagarwal
p335
aVwendyphamdesign
p336
aVBasheir
p337
aVHoneywell_Home
p338
aVtweetsravan
p339
aVServiceCategori
p340
aVbebzucom
p341
aVInfotechKrish
p342
aVolumadebolaji68
p343
aVWilkMobCatSys
p344
aVMMSummitME
p345
aVmondesirmanuel
p346
aVConversionGym
p347
aVcyber_gear
p348
aVFoundingKW
p349
aVFlinbanserin1
p350
aVBlackDogCEO
p351
aVInfluenceSMM
p352
aVjustinlbaker
p353
aVverena_csr
p354
aVSudaneseThinker
p355
aVvindoblr
p356
aVClare_Jerome
p357
aVerinsagin
p358
aVakramwahidlk
p359
aVjessicarichman
p360
aVakhtarjamil07
p361
aVeeeemartin
p362
aVGuelph_Andy
p363
aVbaristamtl
p364
aVRvindraReddy
p365
aVmichaelgdermer
p366
aVCitiSpi
p367
aVLocalsPartnered
p368
aVLocalsCircled
p369
aVbeirutista
p370
aVhotelsneedus
p371
aVDounitweets
p372
aVJulieLivesAthos
p373
aVWomenInTechShow
p374
aVBeautifuldDay
p375
aVericbroughton_
p376
aVKrystal_Nchlsn
p377
aVanthonyjvinci
p378
aVsohumrajguru
p379
aVGoBridgit
p380
aVTinakhiara
p381
aVjberiker
p382
aVRTPARKUW
p383
aVAC_Waterloo
p384
aVJoinLeague
p385
aVSahly85
p386
aVindianyouthblog
p387
aVFyxerLondon
p388
aVmialomo
p389
aVAxolonERP
p390
aVPowerOneimc
p391
aVraydargham
p392
aVGursh14
p393
aVInnovateGuelph
p394
aVYBaadani
p395
aVhichem63656398
p396
aVstardustEric
p397
aVgetperksplus
p398
aVjordanCompany23
p399
aVzoereiley1
p400
aVmyeagleenergy
p401
aVgupsjutla
p402
aVRaceClicks
p403
aVBSXtech
p404
aVAliensmedia
p405
aVbecominga_co
p406
aV988Mohanad
p407
aViamismail
p408
aVashujamal
p409
aVWaqas4hmad
p410
aVBoxingSpartans
p411
aV1000Locals
p412
aVLocalsPortal
p413
aVwonderwebMedia
p414
aVDianaLind03
p415
aVevan_trafford
p416
aVgetlaundry_app
p417
aVTablEdit
p418
aVBrandonCorman
p419
aVDannyG_inkster
p420
aVnuavicenna
p421
aVgymnutapp
p422
aVTheCommunityEd
p423
aVspecialized_ca
p424
aVCynthiaKMusic8
p425
aVfunlali108
p426
aVEtchRockCanada
p427
aVgavinmclelland
p428
aVHassanazamiAzmi
p429
aVmahmoudawwad247
p430
aVrabindra_t
p431
aVNhamkyn
p432
aVExciteLLC
p433
aVJackLaundry93
p434
aVKABOOMworks
p435
aVpauldh73
p436
aVlk0202_utd4lyf
p437
aVrimjemai1_rim
p438
aVAbelAlain1
p439
aVManarTouri
p440
aVPeterBEllen
p441
aVjameslsavile
p442
aVSarrysCycle
p443
aVAboradabbas
p444
aVxoxoadilene
p445
aVtrovesupport
p446
aVgnitome
p447
aVnisreen_shocair
p448
aVnaderch11
p449
aVAbhignadeva
p450
aVsleightell
p451
aVjibinjim
p452
aVnotwen
p453
aVAppzBay
p454
aVHResourcing
p455
aVgetQATstanding
p456
aVStartUpsGreen
p457
aVhaghadi
p458
aV3rioapp
p459
aVmuhammedmahmoud
p460
aVGulfBankers
p461
aVForumIntl
p462
aVGulfManagers
p463
aVSalehWannous
p464
aVnature_mmry
p465
aVG_SAVR
p466
aVNicole_Kelly
p467
aVaimanwk
p468
aVsugeshvk
p469
aVSimplyMatters
p470
aVGSpier
p471
aVmonis_123
p472
aVatjohnarun576
p473
aVwysLink
p474
aVamiraghazal1
p475
aVrockywatches
p476
aVGuelphFab5
p477
aVHamziHelow
p478
aVmoh_shazly
p479
aVIATV
p480
aVTaylorise
p481
aVrahalmaya
p482
aVGuelphDMF
p483
aVbarcelona532307
p484
aVChintziT
p485
aVSilicon_Canal
p486
aVKhanAliSaad
p487
aVadelshehadeh
p488
aVMenaMarketPlace
p489
aVgaragetekk
p490
aVDG_Blizzard
p491
aVmurphytodd
p492
aVwalidamer776
p493
aVdubaipropinfo1
p494
aVmbinod450
p495
aVZee
p496
aVSlackHQ
p497
aVDigitalNexa
p498
aVyoumny
p499
aV3limsh
p500
aVDanaAdhami
p501
aV7xproduction
p502
aVBlinkhornGroup
p503
aVbenrwilde
p504
aVKVCJarvis
p505
aVtysonbaber
p506
aVgivemeachance21
p507
aVIndustrialExpor
p508
aVstbaasch
p509
aVfinancialupdat
p510
aVSmercho
p511
aVamandahwood
p512
aVcareerlobby
p513
aVFelixOtamendi
p514
aVsaadayoub000
p515
aVThomasBateller
p516
aVCrowdTAngels
p517
aVSocialTreeMed
p518
aVCrowdTZoo
p519
aV_bopeng
p520
aVflybaseio
p521
aVHollyNegroni
p522
aVTimArnaudy
p523
aVnormativedesign
p524
aVafefsendy
p525
aVfrancesca_luke
p526
aVRupertRalston
p527
aVBidvineRequests
p528
aVVacarescu
p529
aV98rosjon
p530
aVeAliMohsen
p531
aVhashDubai
p532
aVTiffanyBiscuits
p533
aVPeter_Wilkins
p534
aVKG7ftw
p535
aVwilkox79
p536
aVtjmorganuk
p537
aVSteven_Marsh
p538
aVBradvanL
p539
aVandrewmcdonough
p540
aVkatmigo
p541
aVPeterLJohnston
p542
aVkerryritz
p543
aVDanielCGlazer
p544
aVPedroGastal
p545
aVTheRoyalBudha
p546
aVCrowdTSpa
p547
aViMENAGroup
p548
aVzawanalmaskati
p549
aVDavemcdaniel10
p550
aVInternsME
p551
aVUWVelocity
p552
aVShaYMaaAl_NaiDy
p553
aVCrawleyOrtonujk
p554
aVVasuAtMM
p555
aVrakano
p556
aVwsidavescott
p557
aVQuipSupport
p558
aVtolgaek
p559
aVDhaidri1
p560
aVcourteneyway
p561
aVEspreeDevora
p562
aVSharon_Herzog
p563
aVCadillacQatar
p564
aVmichaelwithana
p565
aVvimalathasts
p566
aVtriathlons_rr
p567
aVKahoCheung
p568
aVDesignerUIUX
p569
aVEpiphanyAi
p570
aVrunning_rr
p571
aVSjgMcbride
p572
aVmakv25
p573
aVfitzyrichard
p574
aVJasonGor_don
p575
aVRasmusGil
p576
aVoubaialhendi
p577
aVCuteGecko
p578
aVCurtisMorte
p579
aVCliffStanwick
p580
aVMssAcademy
p581
aVWalaaElrouby
p582
aVshadis
p583
aVemmazerbib
p584
aVmikeginnyc
p585
aVUmZiad2015
p586
aVArachJalali
p587
aVScentPackUK
p588
aVrajpriyanshu800
p589
aVPITABOSS
p590
aVjoanikin
p591
aVllbarkat
p592
aVjack_mattr
p593
aVjtbiron
p594
aVtamsword
p595
aVcriws_org
p596
aVezzatsayegh
p597
aVhunieco
p598
aVswim_tri
p599
aVBlacksox_2Four
p600
aVOffpeakGames
p601
aVCorinnaJungjoha
p602
aVuqadri
p603
aVfaris1st
p604
aVthisisjacklemon
p605
aVNourDabbanAqqad
p606
aVSAMERAWALI
p607
aVAyaashPaw
p608
aVGamebiz
p609
aVDustinERagan
p610
aVsjkstart
p611
aVaaazzi
p612
aVdefin3com
p613
aVpayam_ansari
p614
aVmicroventures
p615
aVdragilev
p616
aVmuhammadokn
p617
aVConnateCo
p618
aVsteitiyeh
p619
aVToon
p620
aVTimenBaart
p621
aVbnmrrs
p622
aVjoinBlink
p623
aVLordLouis3
p624
aVanniemeikle
p625
aVshop_ub
p626
aVRainBirdAI
p627
aVbenjamta
p628
aVkitbrennan
p629
aVCoalfaceME
p630
aVjamyn
p631
aVpaulbarron
p632
aVmsrsan
p633
aV7258b963aa584f4
p634
aVinventur_es
p635
aVidomdavis
p636
aVGeekLondon
p637
aVeholtzclaw
p638
aVDARE2dk
p639
aVKrisOestergaard
p640
aVbidvine
p641
aVvitaphone2015
p642
aVmustwin
p643
aVGuelphChamber
p644
aVrosykachouh
p645
aVCappsApp
p646
aVAskmeBoy
p647
aVLifeLongU2
p648
aVjeetnsingh
p649
aVrjwissin
p650
aVbydoor
p651
aVKenzieArnott
p652
aVqybifoditusy
p653
aVJenWBruce
p654
aVLeviJohnston05
p655
aVReevaB
p656
aVBrunelAsali
p657
aVGoodMad_
p658
aVsalahldden
p659
aVRekhaSetpal
p660
aVSolarFuture1
p661
aVAmyTennison
p662
aV3D_EYE_campaign
p663
aVchristinesview
p664
aVRealityYemen
p665
aVLindsayMacMusic
p666
aVneXstepluggage
p667
aVBitsBikesBoards
p668
aVVivekNGT
p669
aVmcbach
p670
aVvaldisfjolnis
p671
aVsporttracks
p672
aValejand77041284
p673
aVvortex_m
p674
aVkarenmallinder
p675
aVfunky2k
p676
aVDrAHaddad
p677
aVSHORT_REPORT
p678
aVRunnerBliss
p679
aVwayswework
p680
aVBetterToronto
p681
aVOPPOUAE
p682
aVLegacyofGena
p683
aVMr_IceLabs
p684
aVSENXATOS
p685
aVrealCoreyEngel
p686
aVUmerAnwer
p687
aVrida
p688
aV15Mahmoodali
p689
aVDejanBalic
p690
aVPlaypassGo
p691
aVDinescuOrganics
p692
aVsafwanbalas
p693
aVtrendsnutrition
p694
aVSRKInventions
p695
aVThisIsClique
p696
aVLazyMarathoner
p697
aVmommyindubai
p698
aVamirapollyon
p699
aVacremades
p700
aVsaypaytech
p701
aVjboitnott
p702
aVAurangzeb_k
p703
aVWaleedHeloo
p704
aVLogicalN_S
p705
aVpaul_s_kemp
p706
aVgagglemap
p707
aVStaceySage
p708
aVmaelearn
p709
aVfaisel_b
p710
aVoldcalgurl
p711
aVRezaHashemi
p712
aVrebel_child69
p713
aVmalliann16
p714
aVSdArcT
p715
aVsmsucds
p716
aVLeeMancini1
p717
aVimtiaz_acca1975
p718
aVshahbazmemon007
p719
aVumarsiddiqi
p720
aVarahmad1982
p721
aVhubbubnet
p722
aVAssafShirin
p723
aVtwitatulsharma
p724
aVKarenBeggs
p725
aVMicroexcelLLC
p726
aVjalyassin
p727
aV3dheights
p728
aVRaffiKeuhnelian
p729
aVMarwandaher
p730
aVmariayzk
p731
aVhustle2succeed_
p732
aVrakelsolva
p733
aVelelgo1
p734
aVstraub_sheila
p735
aVteamLPC
p736
aVKickOffMyTree
p737
aVdastgeer_gh
p738
aVMilliSense
p739
aVnancyky52
p740
aVrubrubs
p741
aVlurganbeach
p742
aVomunderdal
p743
aVHSMichy
p744
aVoelbatran
p745
aVbobfine
p746
aVKumawatInfo
p747
aVMsMerryMac_
p748
aV89Ismat
p749
aViMadeN8yoZaxbys
p750
aVMana_S
p751
aVdo3a241492525
p752
aVosama13
p753
aVSanctuarySpaHol
p754
aVpcvincent
p755
aVLatinosGuelph
p756
aVEverettColdwell
p757
aVVladoBotsvadze
p758
aVPrometheonPharm
p759
aVBeatYourMarkUSA
p760
aVm78haboush
p761
aVhuzi13
p762
aVironmancanada
p763
aValhamad_sultan
p764
aVMisleadMizfit
p765
aVdesertkiwi
p766
aVtommychavez
p767
aVGavin_McCulley
p768
aVThePizzaGuysUAE
p769
aVtuplepie
p770
aVDebraLChapman
p771
aVmirfanpaki
p772
aVedla
p773
aVdglbr
p774
aVMaya14333
p775
aVadrianaleboss
p776
aVgmonde75
p777
aVnmp_mx
p778
aVSwAuvy
p779
aVmohitksharma
p780
aVCrowdEnergyFAU
p781
aVHendDXB
p782
aVmohammedfatawu7
p783
aVagboshina
p784
aVadvypet
p785
aVrubensonchaves
p786
aVKrisABraun
p787
aVstartuphangar
p788
aVSadafVahedna
p789
aVNimbleVentures
p790
aVstartupfest
p791
aVtheosbright
p792
aVAhStrange
p793
aVhichem_chbe123
p794
aVRepublic_Now
p795
aVTriathlonTO
p796
aVJobuJobin
p797
aVSeenJeemAPPs
p798
aVqamar286
p799
aVAshima26
p800
aVDCTweetBounce
p801
aVMarcGarneau
p802
aVromantic2000002
p803
aVfadialrashid
p804
aVmyeurojourney
p805
aVLloydLongfield
p806
aVNiek88Niek
p807
aVdavidal79806907
p808
aVMontreal_IA
p809
aVChammySy
p810
aVdashmobile
p811
aVSambuca85
p812
aVshivendrabhatia
p813
aVwuDARKHORSEFILM
p814
aVfabio_csilva
p815
aVpingo_diab
p816
aVbparkins
p817
aVCinEventful
p818
aVAleGirlnice
p819
aV9aa
p820
aVtrinacria1908
p821
aVgoonerrob
p822
aVm_ibthi
p823
aVmbuchli
p824
aVTaskSpotting
p825
aVSadiJuma
p826
aVshahan01
p827
aVs_yusri
p828
aVPoet_Moglica
p829
aV9MediaOnline
p830
aVwijk_paul
p831
aVSwatchnPalette
p832
aVWeAreBaraka
p833
aVyoyo_huhu
p834
aVfmsibai
p835
aVairinandrews
p836
aVdash_labs
p837
aVtStudioOrg
p838
aVmaryanntee13
p839
aVJurisu
p840
aVBrandOuellette
p841
aVcarlgould
p842
aVSteveGraham1
p843
aVchrija
p844
aVAndrew_S_Dykes
p845
aVhullsean
p846
aVOutrightOwl
p847
aVakhilsethi
p848
aVNour_Soudani
p849
aVjelenageha
p850
aVArabTechTweets
p851
aVGalbraithJeremy
p852
aVNadinodxb
p853
aVEdnever
p854
aVCymruEvans
p855
aVOmarYsf
p856
aVcanadiansuzanne
p857
aVAzurSpa
p858
aVArkMediaGroup
p859
aVsteube
p860
aV2bCoachingTeam
p861
aVecoshifter
p862
aVIgnitePopUp
p863
aVmuthu_martin
p864
aVfrmuses
p865
aVjazminme
p866
aVrichatodd
p867
aVloaimarji
p868
aVDomfern1
p869
aVBookshelfnews
p870
aVWorkitTV1
p871
aVCeoNazrul
p872
aVpraveen46346731
p873
aVmaulikdholaria
p874
aVStephenCaggiano
p875
aVJessHullinger
p876
aVGauravshastriDr
p877
aVIndiegogoCA
p878
aVFjacobs2001Faye
p879
aVPcbEdward
p880
aVAiyeshaP
p881
aVTheCoStartup
p882
aVStationery_inc
p883
aVbarnath21
p884
aVstephanobrice
p885
aVJustinKCey
p886
aVMiltonTiffany
p887
aVaemeyer91
p888
aVmunawarali80
p889
aVakzureikat
p890
aVFreelineCo
p891
aVbarbaramcwh
p892
aVCChettri
p893
aVKellyCanuckTO
p894
aVnabeelchishti
p895
aVFawkes_Th3Ph
p896
aVGuiaemDubai
p897
aV251Oskar
p898
aVToriLeeScoles
p899
aVInventEventsUAE
p900
aVenTREEpreneurz
p901
aVraghavmimani16
p902
aVdrhfan
p903
aVbnprashanth12
p904
aVpdamico
p905
aVMarcianMichael
p906
aVfunnyspeaker
p907
aVJDW_momma
p908
aVShermanSlade
p909
aVwilliamtincup
p910
aVndelgrande
p911
aVLuckShipp892
p912
aVwillhutson
p913
aVRTB_TECH
p914
aVFloszach
p915
aVTim_Wil1iams
p916
aVRTBkit
p917
aVdatacratic
p918
aVDenis_stewart
p919
aVmahmoodtaha555
p920
aVHedleyHymers
p921
aVrepairsharks
p922
aVrobertkhan673
p923
aVgoodyearmea
p924
aVbasharo19991
p925
aVShafz
p926
aVTenacreGroup
p927
aVdula_tj
p928
aVanarula23
p929
aVrcote75
p930
aVWissamAboueida
p931
aVSayeddMohamed
p932
aVmelida_aponte
p933
aVdataguy808
p934
aVFuentesRecords
p935
aVSandyStilettos
p936
aVTheWorkMob
p937
aVBrummittCA
p938
aVMrScottEddy
p939
aVJuanAndresGome1
p940
aVrobleathern
p941
aVssfcwra
p942
aVlametrious1
p943
aVzenabhamed11
p944
aVvbentley
p945
aVOneReadr
p946
aVjoseedaigneaul1
p947
aViamkevinhurley
p948
aVabjatron
p949
aVJohnMardlin
p950
aVali66
p951
aVdotWasim
p952
aVAndreiUtkin
p953
aVTRIDXB
p954
aVChasSweeting
p955
aVNeilEgerton
p956
aVJoseLuisRoqueni
p957
aVmbassaf
p958
aVJairodiaz200Y
p959
aVcboSeb
p960
aVRBCckornbluth
p961
aVpearlwhitemedia
p962
aVrmacdxb
p963
aVSocialCircleUAE
p964
aVamethystp1969
p965
aVTacknots
p966
aVCalvinHelin
p967
aVgelenbe
p968
aVmichaeldavis777
p969
aVdanaj518
p970
aVrajeev78gupta
p971
aVtoosketch
p972
aVSocialeigh
p973
aVBrainBoxUK
p974
aVAmerikebab
p975
aVMFourmanovskis
p976
aVAskLalonde
p977
aVprnaylor
p978
aVDXB_travelers
p979
aVmanoj1977
p980
aVahasaniya
p981
aVffabio_ssilva
p982
aVMarceHPerez
p983
aVSmithFanny
p984
aVkvasnic
p985
aVfwdthinkdubai
p986
aVeventualmillion
p987
aVadgear
p988
aVbriancrawford4
p989
aVGRINDSTAFFDE
p990
aVbuildmaster
p991
aVOptimiseOrDie
p992
aVMproietti6
p993
aV_annazissou
p994
aVCATAAlliance
p995
aVJustinMRaymond
p996
aVamaclin1
p997
aVFeldmanCreative
p998
aVartofimpression
p999
aVtorobravo_21
p1000
aVmuneebmushtaq
p1001
aVRizstanford
p1002
aVmapyourstartup
p1003
aVNibalJarrar
p1004
aVTribeBoost
p1005
aVTylerPBurgess
p1006
aVeisenberganat
p1007
aVCasaElanDubai
p1008
aVAngelaPanama
p1009
aVurayas114
p1010
aVSaatchiArt
p1011
aV5PiecesGallery
p1012
aVDUBUZZme
p1013
aVhelenaustin
p1014
aVElena91735488
p1015
aVghalebfarha
p1016
aVduncano
p1017
aVrwang0
p1018
aVUpstreamDW
p1019
aVJudithAquino
p1020
aVLeoPetrik
p1021
aVmatthewlesko
p1022
aVONEbyAOL
p1023
aVpaul_francs
p1024
aVMGH3_GaMer4eVeR
p1025
aVThebig1063fm
p1026
aVBenjaminCormier
p1027
aVNicheMEUK
p1028
aVPMB_paulmbyrd
p1029
aVrizviiqubal
p1030
aVmarcowerx
p1031
aVFadiAbulaban
p1032
aVfemkesongs
p1033
aVrshd_owais
p1034
aV_bwesley9
p1035
aVClaudio50429923
p1036
aVgrowthhackertv
p1037
aVabprancer
p1038
aVJavedSeo
p1039
aVKayesMahmud
p1040
aVaphil_jones
p1041
aVPreciseTestingS
p1042
aV1IntlNews
p1043
aVRulaalsalah
p1044
aVSpeedDriveRac
p1045
aVCBC
p1046
aVmariainglis
p1047
aVRecruitiveuk
p1048
aVunderdogreg
p1049
aVMirMuza
p1050
aVm12332144a
p1051
aVcreap54
p1052
aVcleverzebo
p1053
aVhanm91
p1054
aVLiveInsite
p1055
aVsisterrock
p1056
aVmapleleafangels
p1057
aVHayekMG
p1058
aVsummerq25
p1059
aVMargauxLuve
p1060
aVAndyBruce
p1061
aVengineerjbd
p1062
aVAfzalSara9
p1063
aVKlausBillinger
p1064
aVpamelakonst
p1065
aVslimthick32
p1066
aVajoor
p1067
aVmarblemountain7
p1068
aVSHIFTcomm
p1069
aVFruitCoDubai
p1070
aVkellykonst
p1071
aVtshergalis
p1072
aVmarkyham
p1073
aVHeroBurgers
p1074
aVEMarketing991
p1075
aVvstesin
p1076
aV787503
p1077
aVwadihhaddad
p1078
aVDianeKroe
p1079
aVpolisetti
p1080
aVaneesha_rai
p1081
aVmyintlshopping
p1082
aVaalem01
p1083
aVMohmmadALkhalil
p1084
aVStartupPro
p1085
aVsamfiorella
p1086
aVLDillonSchalk
p1087
aVceo_of_me
p1088
aVAbedbibi
p1089
aVrealscottmcleod
p1090
aVaboulmiche
p1091
aVHDeiki
p1092
aVadnanalfakesh
p1093
aVTriYouthCharity
p1094
aVbosko
p1095
aVfranzandre98
p1096
aVtoto_600
p1097
aVcjuravi
p1098
aVAzSolami
p1099
aVsocialaddictsae
p1100
aVmostafamoos63
p1101
aVAccessUndertone
p1102
aVAbuDhabiMS
p1103
aVEl7esab
p1104
aVJustinBelmont
p1105
aVrecruitcrowd
p1106
aVprose
p1107
aVsanaiprahim19
p1108
aVafndina101
p1109
aVFiveStarCrew
p1110
aVDanielezekielay
p1111
aVmichelleimber
p1112
aVLibnyKattapuram
p1113
aVMediaNetworkME
p1114
aVkabab_rolls
p1115
aVzhlnls1625341
p1116
aVCbclinicTips
p1117
aVSaraxyB
p1118
aV99premium
p1119
aVMasry2011Ahmed
p1120
aVAdEatersDubai
p1121
aVmcconeprops
p1122
aVbrendaj70390507
p1123
aVabdulaalbahrani
p1124
aVazhar_khn1986
p1125
aVbnowair_corp
p1126
aVvoxcinemas
p1127
aVperedoumenee
p1128
aVRoman_Kostochka
p1129
aV6alalAl3azmi
p1130
aVmalxazne
p1131
aVHJimmy17
p1132
aVarbstartups
p1133
aVHamedAlAqili
p1134
aVblizardst
p1135
aVtodoxmty
p1136
aVkhloued33
p1137
aVTHEPRCLINIC
p1138
aVSalimAkeel
p1139
aVNaturalLooksUAE
p1140
aVd3ayat
p1141
aVASIL_Company
p1142
aVJobinDxb
p1143
aVtalabadri
p1144
aVsafieducation
p1145
aVUAEsaves
p1146
aVsuperstrong
p1147
aVrobbievitrano
p1148
aVShoootShooot
p1149
aVSearchinMENA
p1150
aVFastForwardUAE
p1151
aVSaberAlabyad
p1152
aVSherylCrighton
p1153
aVexperts4social
p1154
aVCarlton_Dubai
p1155
aVPrideHolding
p1156
aVAEserver
p1157
aVjowwjieh
p1158
aVDubaiWriter
p1159
aVAlbertLeague
p1160
aVArabianStartups
p1161
aVazdine_00
p1162
aVeastlandtourism
p1163
aVtheDirectGroup
p1164
aVStackSearch
p1165
aVSusan_schmidt_G
p1166
aVabplumbingabq
p1167
aVopportunix_de
p1168
aVMarilynzakhour
p1169
aVwaveswaterworld
p1170
aVfooz43
p1171
aVRiceCreamery
p1172
aVtheartofthexpat
p1173
aVjennawyer
p1174
aVMediconcepts
p1175
aVrmperez_c
p1176
aVlamaotb19
p1177
aVLuckyVetClinic
p1178
aVrubyreddubai
p1179
aVghazalgroup
p1180
aVtezzak
p1181
aVRamiNashef
p1182
aVOsamaOsamakoota
p1183
aVDGBGhomes
p1184
aVAflamnah
p1185
aVmaghrabialaa
p1186
aVtatari_mohammed
p1187
aVBeUtifulLaura
p1188
aVTheDubaiEvents
p1189
aVhazem_shorbagy
p1190
aVShikkha_P_Law
p1191
aVFContinents
p1192
aVShopHaHaHa
p1193
aVatifdadkhan
p1194
aVT49449
p1195
aVSteveAMcIntire
p1196
aVturn8hub
p1197
aVLara__G
p1198
aVBedmattressdoc
p1199
aVLassam
p1200
aVHairCareToday
p1201
aVMaraCarpencu
p1202
aVubaidmuzaffar
p1203
aVGlamcamStudio
p1204
aVStirringTweets
p1205
aVDrAliMoh
p1206
aVsundstedt
p1207
aVmoody_357
p1208
aVNader_Michael
p1209
aVKazimtechnology
p1210
aVSuneeshcd
p1211
aVsalah_eldeen_87
p1212
aVheba_hashem
p1213
aValsiasi
p1214
aVabaaduae
p1215
aVarTechFeeds
p1216
aVexpertsdesk
p1217
aVmoodfazal
p1218
aVben_bloomfield
p1219
aVRa3e_Fz3ah
p1220
aVHFadeel
p1221
aVAdeebK
p1222
aVcmschroed
p1223
aVDinarStandard
p1224
aVmmmtz51
p1225
aVindengservices
p1226
aValaseery221
p1227
aVkcren
p1228
aVpitmecatalyst
p1229
aVperfumearabia
p1230
aVsatatravels
p1231
aVa7mad3bdullah
p1232
aVmofid1_
p1233
aVSyedMujthaba
p1234
aVkrysstary
p1235
aVLeDuplexDubai
p1236
aVzajil07
p1237
aVkapilpropertybu
p1238
aVhiarybelal
p1239
aVkheityn
p1240
aVMukitrana
p1241
aVElixirMedicos
p1242
aVTamaasha
p1243
aVmuhanadqafeshah
p1244
aVloungedubai
p1245
aVyhangkasan
p1246
aVzarifgroup
p1247
aVbestsalesroles
p1248
aVRashaKash
p1249
aVWassWass
p1250
aVEdrineSanti
p1251
aVtahera25
p1252
aVemalinaker
p1253
aVneeraj03
p1254
aVmarc_logman
p1255
aVsiddiquinayeem
p1256
aVWMADubaiFans
p1257
aVInventEventsDBX
p1258
aVtipug
p1259
aViiGhandour
p1260
aVEverlane
p1261
aVUchairul96Yaho
p1262
aVsuherman4321
p1263
aVaddressyourmess
p1264
aVAlAinRaceway
p1265
aVraniahadi
p1266
aVLocalClaim
p1267
aVZeidNasser
p1268
aVshahidm
p1269
aVTravelPaparazzi
p1270
aVzedjawad
p1271
aVRussReign
p1272
aVEstateKas
p1273
aVSkylandTourism1
p1274
aVHydroFabs
p1275
aVworldcareerlife
p1276
aVezfairs
p1277
aVAngelicadqml
p1278
aVMompreneursME
p1279
aVkevoli2000
p1280
aVHattanAlshbat
p1281
aVrmichalo
p1282
aVSatuSusanna
p1283
aVirisprdubai
p1284
aVbrandSCIENS
p1285
aVnasebachallenge
p1286
aVDebbas
p1287
aVTextileIndustry
p1288
aVguiajm0708
p1289
aVDileep_Vacker
p1290
aVin5dubai
p1291
aVLetsStartup_TO
p1292
aVahamad_abdullah
p1293
aVadcircle
p1294
aVkhelal
p1295
aVDoosBrothers
p1296
aVhayfaali
p1297
aVmarianeabd
p1298
aVbeachlovr33
p1299
aVcorona_idris
p1300
aVEntreStudents
p1301
aVDigitalAgentOO7
p1302
aVshariefstores
p1303
aVPerrierAE
p1304
aVjustgiftitcom
p1305
aVdeepak_lycans
p1306
aVMonkyness
p1307
aVXcelAccounting
p1308
aVeliekhoury
p1309
aVpgallagher06
p1310
aVentropiixd
p1311
aV_ook
p1312
aVJohnBlutarski
p1313
aVentropiidesign
p1314
aVasgherarizoona
p1315
aVchinedumemma
p1316
aVDDArabia
p1317
aVeVirtualize
p1318
aVtheapexgroup
p1319
aVthprinting
p1320
aVPaulParsons1981
p1321
aVStyle_au
p1322
aViMarketMENA
p1323
aVabdullahi_bo
p1324
aVMAHARY_5
p1325
aVEmma_CI
p1326
aVCareerIntel
p1327
aVDubaiGplus
p1328
aVaHMeDBakaBoZa
p1329
aVHussainTopu12
p1330
aVjosephkc1
p1331
aVMauritaufgo
p1332
aVfa1r2o3k4
p1333
aVgulfammover
p1334
aVLuptonGroup
p1335
aVlinamad
p1336
aVbloch_group_786
p1337
aVThirdCultureFam
p1338
aVDealsHabibi
p1339
aVBanconoMuhammad
p1340
aVAtifCas
p1341
aVGentsClubDubai
p1342
aVcoolfaisy007
p1343
aVRR_DUBAI
p1344
aVdubaiversace
p1345
aVArbounHedi
p1346
aVlouisdoctor
p1347
aVrashfreelancer
p1348
aVOffercom_UAE
p1349
aVweesography
p1350
aVhumanequationae
p1351
aVDigitalFolioInc
p1352
aVcrowd_supply
p1353
aVarmaanmohsin
p1354
aVsmitajohn
p1355
aVBabylonevent
p1356
aVjohndickenson
p1357
aVLBirawan
p1358
aVwsiworld
p1359
aVfmorello
p1360
aVneoleb
p1361
aVNickMcDonagh
p1362
aVMomentumbeauty
p1363
aVNisreenFaris
p1364
aVTrudyDear1
p1365
aVnellleo
p1366
aVmichellestubnya
p1367
aVjacquelynbrioux
p1368
aV99ashaya
p1369
aVITECademy
p1370
aVFacesMiddleEast
p1371
aVomarranya58
p1372
aVemarketingbay
p1373
aVYvonneChebib
p1374
aVrankworld
p1375
aVmyrightbite
p1376
aVjeffad05
p1377
aVShinydocs
p1378
aVKm_Poetry
p1379
aVPaul_Sonnier
p1380
aVJeremyCampbell
p1381
aVsatnamanu
p1382
aVsaskemohamed
p1383
aVkilikku
p1384
aVArshGallery
p1385
aVexpattravelmom
p1386
aVrenjie
p1387
aVdavejkennett
p1388
aVkamelabusaqer
p1389
aVStrathclydeUAE
p1390
aVShu_teeShaker
p1391
aVJonasBrandon
p1392
aVfkhater
p1393
aVzino_belkaddas
p1394
aVSutekiDaNe89
p1395
aVelienasr
p1396
aVBeata4
p1397
aVRaven_Nijae
p1398
aVVincentAtLarge
p1399
aVRSIHost
p1400
aVbnyanS
p1401
aVnisreenbashnak
p1402
aVclaudiostefani1
p1403
aVEyad_Awad
p1404
aVcaptnsports
p1405
aVbhavikrupali
p1406
aVAssuntaHollard
p1407
aVidrinklocal
p1408
aVJamesEntertain
p1409
aVAbiBb9
p1410
aVmohamed_johmani
p1411
aVSarahquatrieme
p1412
aVvotewan
p1413
aVkylegme
p1414
aVbutinahcruising
p1415
aVdubaicutefaces
p1416
aVSophorona
p1417
aVIAutographs
p1418
aVpreetksanand
p1419
aVEgyptTravelBlog
p1420
aVMarloNabil
p1421
aVeliemikhael
p1422
aVpunleur
p1423
aVNFatimi
p1424
aVzrenjithz
p1425
aValamodefashionj
p1426
aValnassag1
p1427
aVsarafarzan
p1428
aVTechBackpack
p1429
aVDreamUniforms
p1430
aVjuliousdelo
p1431
aVBrambele
p1432
aVAsankar
p1433
aVpunkx21
p1434
aValmostawhisper
p1435
aVrd6nov
p1436
aVAash_Dxb
p1437
aValirifai666
p1438
aVorangeJo
p1439
aVkandclothing
p1440
aVmudaserlateef
p1441
aVdubills
p1442
aVRana_Elbehery
p1443
aVAD4x4Club
p1444
aVnoornet
p1445
aVIpsosMENA
p1446
aVJOUJOUGIMI
p1447
aVASGLOBALINVEST
p1448
aVReyLipaopao
p1449
aVwataniuaenews
p1450
aVhinanavin
p1451
aVshohag1399
p1452
aVRitesh_Shekar
p1453
aVDREAMKITCHENUAE
p1454
aVnitinmirani
p1455
aVkhankamil37
p1456
aVtherealfirozack
p1457
aV8129454558
p1458
aVmarinamoghadam
p1459
aVbaselshaddad
p1460
aV_noon010
p1461
aVYussifBinMisbau
p1462
aVgnon1434
p1463
aVmedoehlimanakla
p1464
aVAllToOneMedia
p1465
aVengelcesme
p1466
aVrolandal
p1467
aVMozerMarta
p1468
aVmufaaf
p1469
aVMawaahebDotCom
p1470
aVOsamaNatto
p1471
aVkindaimedia
p1472
aVSnowflakes89
p1473
aV2013Kili
p1474
aVmystartupworld
p1475
aVADNGNETWORKING
p1476
aVambareenm
p1477
aVoopsydaisy85
p1478
aV1MDKhurshidAlam
p1479
aVFlaminbg
p1480
aVanaszawia
p1481
aVBahrainJournal
p1482
aVmak001
p1483
aVmaria_sorger
p1484
aVGEMUNIFORM
p1485
aVTijaraMarket
p1486
aVhappyfeetruns
p1487
aVmawwellers
p1488
aVFindaHomeDubai
p1489
aVstorylive28
p1490
aVdshibs
p1491
aVMTalhaImtiaz
p1492
aVBespokeDubai
p1493
aVlizzaik
p1494
aVGbemi_Akande
p1495
aVmo7amedmousa
p1496
aVpentame
p1497
aVLeadermaher
p1498
aVahmadhajou
p1499
aVOSBizAE
p1500
aVrosyajaka
p1501
aVElizaI
p1502
aVreemalshak3a
p1503
aVgetkenny
p1504
aVtechadd1ct
p1505
aVSamerAlMandil1
p1506
aVChezSushi
p1507
aVtwitt_erfolg_de
p1508
aVLazarosGT
p1509
aV5ebraa
p1510
aVRoush28
p1511
aVtheodorehalabi
p1512
aVDubaiers
p1513
aVNGLeaders
p1514
aVhuneidsb
p1515
aVParabolicVC
p1516
aVlenaara
p1517
aVasad_ali10
p1518
aVMAKEbusinesshub
p1519
aVtonytran1589
p1520
aVcameofoam
p1521
aVazeemcinna
p1522
aVamitkauntia
p1523
aVdialabattery
p1524
aVRuresK
p1525
aVBellydanceUAE
p1526
aVSAMJADON
p1527
aVTrickstr
p1528
aVkuldeeprajputs
p1529
aVObaka652
p1530
aVAnizGPillai
p1531
aVQuantatel
p1532
aVnawarraad
p1533
aVcitywayadv
p1534
aVMBAassignment
p1535
aValhamyre
p1536
aVLuxICMaldives
p1537
aVRealgiftDubai
p1538
aVMageMetro
p1539
aVOropaLtd
p1540
aVJohannaDzartah
p1541
aVpxlvctr
p1542
aVBayanwaleed
p1543
aVMoAbuHaniyeh
p1544
aVnextstretch
p1545
aVRehan_Advisor
p1546
aVIlTagliopizza
p1547
aVavedistraction
p1548
aVTheKiranSharma
p1549
aVbox_less
p1550
aVabdelra57186983
p1551
aVZuzanaHyl
p1552
aVPhillykevan
p1553
aVlifecare_intl
p1554
aVshafeequ005
p1555
aVTheSweat_Shop
p1556
aVsuraj5O
p1557
aVzafar_chandio
p1558
aVnikx_bubbles
p1559
aVGommnaUAE
p1560
aVSir_Munano
p1561
aVjohnathononeill
p1562
aVMSFTBusinessMEA
p1563
aVsentiomedia
p1564
aVbraulio12345671
p1565
aVsuhailmahmed
p1566
aVAlMsaoody
p1567
aVTheUrbanYogi
p1568
aValzaherllc
p1569
aVpinktankUAE
p1570
aVduccons
p1571
aVDealPusscom
p1572
aVLaurenofArabia_
p1573
aVdannielleblaker
p1574
aVNettResults
p1575
aVshiazo_uae
p1576
aVSheikMuneum
p1577
aVTouficGebran
p1578
aViTechShow
p1579
aVBillRingle
p1580
aVajconsultingme
p1581
aVhsalousa
p1582
aVZakariaBH
p1583
aVomarecoba
p1584
aVcoastalsafety
p1585
aVfrenzyfarhan
p1586
aViigcapital
p1587
aVMACVITA_LLC
p1588
aVlanetwelve
p1589
aVnmlawuae
p1590
aVnastyrunner
p1591
aVlotusyogadubai
p1592
aVSARAHAMDAN
p1593
aVyjbeili
p1594
aVbhabycoh24
p1595
aVabdulrassol
p1596
aVMyWamli
p1597
aVresalauae
p1598
aVElinaErica1
p1599
aVcreative2006m
p1600
aVkindaibrahim
p1601
aVBagnbean
p1602
aVdanielle_ferns
p1603
aVJZoya
p1604
aVkishore_mulani
p1605
aVYokiDelights
p1606
aVfayez1944
p1607
aVTiEUnited
p1608
aVHouseofCarsDxb
p1609
aVHassanSoukar
p1610
aVResourcrLLC
p1611
aVGRRenegade
p1612
aVALINTHIBAH
p1613
aVcashconvertersD
p1614
aVhahazizo
p1615
aVtrimarchi5946
p1616
aVjohnnypee
p1617
aVmeJBS
p1618
aVsayyedreyazuddi
p1619
aVamjadhiary
p1620
aVQuotemeuae
p1621
aVRelaisFoch
p1622
aVIVRDubai
p1623
aVAsiyashek
p1624
aVAShamlawi
p1625
aVConneyLu
p1626
aVjustorderme
p1627
aVAlSabaTentsLLC
p1628
aVHarrisMemon
p1629
aVEmarketNigeria
p1630
aVSuzanneMGrant
p1631
aVOverseeRsINTL
p1632
aVkhaled2lunix
p1633
aVDubaiMillions
p1634
aVanmtere
p1635
aVvinodnaagar
p1636
aVma2too3a
p1637
aVmonipushe
p1638
aVSaeed_AlNahdi
p1639
aVurbaneventsdxb
p1640
aVGES_EVA
p1641
aVUAEpublicCos
p1642
aVkushagrakumar45
p1643
aVfoodemirati
p1644
aVNY2UK
p1645
aVPhilipChristoff
p1646
aVsphereevents
p1647
aVRovanPinto
p1648
aVCandidCons
p1649
aVBassemAK
p1650
aVAntiquibraga
p1651
aVDooDiFaTHer
p1652
aVnaughtygirls007
p1653
aVMylistAE
p1654
aVomz100
p1655
aVRealtyGrouper
p1656
aV23altamimi
p1657
aVRumoursUAE
p1658
aVmarwan_farha
p1659
aVshazdesign
p1660
aVKoesSilva
p1661
aVcodyweimer1
p1662
aVjeanskey_2006
p1663
aVOnlinedubai1
p1664
aVBetaKit
p1665
aVs91abbasi
p1666
aVDanielAdjeii
p1667
aVGLatinovic
p1668
aVDluxShopuae
p1669
aVMavzor
p1670
aVnainajas
p1671
aVgarrethscott
p1672
aV3ring
p1673
aVp_starchitect
p1674
aVBorromeopm
p1675
aVladybirdinvogue
p1676
aVMarcAtiyeh
p1677
aVCapoeiraDubai
p1678
aVCityHi_
p1679
aVe_b_j
p1680
aVswathiaravind2
p1681
aVROYALEMPLOYMENT
p1682
aVALWADITranslate
p1683
aVshampoochuae
p1684
aVreBroadcastme
p1685
aVSunSandSport
p1686
aVBeachLockets
p1687
aVDubaiFleaMarket
p1688
aVDuroClean
p1689
aVnickwatson1411
p1690
aVhasadbaoch
p1691
aVARNNewsCentre
p1692
aVMovement_DXB
p1693
aVdivalifeuae
p1694
aVdubaiarchitectu
p1695
aVSuradiD
p1696
aVPiofront
p1697
aVRentDealsDubai
p1698
aVSYEDZAFARHYDER
p1699
aVemadfamin
p1700
aVYahyaiceman
p1701
aVformulakings
p1702
aVAbuArabiAbazaid
p1703
aVjincev
p1704
aVSMEinfo_ME
p1705
aVjebelaliresort
p1706
aVMillionairesbc
p1707
aVislamsibai
p1708
aVResellerME
p1709
aVTHAKURISINGH
p1710
aVYaBaladi_Dubai
p1711
aVdatalinks1
p1712
aVLisaDaleDubai
p1713
aVdijitalestate
p1714
aV2A7lanagham
p1715
aVHibaAraji
p1716
aVLandscapeDesig2
p1717
aVExcellentHospit
p1718
aVangelsinstyle
p1719
aVAdviseIntl
p1720
aVSndsMe
p1721
aVomarfk
p1722
aVNorth_Tours
p1723
aVmerlinaroma
p1724
aVtotalretailblog
p1725
aVTottDaf
p1726
aVtams888
p1727
aVEyedea_ae
p1728
aVJumeirahJim
p1729
aVetoabosaad777
p1730
aVrazasaeed
p1731
aVcontrariansmind
p1732
aVbzeeshan
p1733
aVFadyRoumieh
p1734
aVbhnuz
p1735
aVDejaVuDubai
p1736
aVHayleyHilton
p1737
aVNoaDentalDubai
p1738
aVMalik735
p1739
aVDiplomatTraffic
p1740
aVDubaiRentalProp
p1741
aVmelroylopes
p1742
aVeletehydration
p1743
aVYogomagic
p1744
aVOshKoshUAE
p1745
aVPinnacleWallet
p1746
aVsaifalghithi
p1747
aVintouchdavep
p1748
aVwork4perk
p1749
aVmaysa88
p1750
aV274Princess
p1751
aVWolfy_Tha_Beast
p1752
aVInRetailSummit
p1753
aVtriplezeehoreca
p1754
aVBigGloria
p1755
aVaddyj672
p1756
aVDinajaf
p1757
aVOnedealon
p1758
aVSavingindubai
p1759
aVShirinAsadi1
p1760
aValeslam_2007200
p1761
aVsmall_soad1990
p1762
aVgalaxyseller
p1763
aVSherifAtef1
p1764
aVCheapWeddingDxb
p1765
aVgdcjlt
p1766
aVpolarbeardxb
p1767
aVAir3Creative
p1768
aVRajahmusUmer
p1769
aVAdandos
p1770
aVSelectFurnishME
p1771
aVinvestasitwitt
p1772
aVAngelaPupy
p1773
aVkhuram_khann
p1774
aVsafyhost
p1775
aVmyideacampus
p1776
aVKatie_Fielder
p1777
aVpkkkkkkkkj
p1778
aVSheeraOmian
p1779
aVlafinc2
p1780
aVSinoChai
p1781
aVDubai_days
p1782
aVElktonMrElectrc
p1783
aVmrarrabi
p1784
aVSlyStu2012
p1785
aVDubai_M_
p1786
aVarunelengical
p1787
aVOwiSam15
p1788
aVSalma_al7ajri
p1789
aVLobrienO
p1790
aValkarmi
p1791
aVAhmedAouedraogo
p1792
aVNancySudheer
p1793
aVMoizJKhan
p1794
aVpopoymamaw
p1795
aVneelzgandhi
p1796
aVerikbriones
p1797
aVHouseOfLeoDubai
p1798
aVnewsflashdubai
p1799
aValmakad
p1800
aValmakad
p1801
aVMahmoud_Khalil
p1802
aVabeymac
p1803
aVCassieHotma
p1804
aVemanhyder
p1805
aVTashsterUnited
p1806
aVpoojapillai
p1807
aVA50007
p1808
aVabd_910
p1809
aVdreamspacedxb
p1810
aVsmarttapmy
p1811
aVTatianajama
p1812
aVbarbie_sasso1
p1813
aVdesignersit
p1814
aVtunubul
p1815
aVGrandSafirHotel
p1816
aVBONPON_TW
p1817
aVMoneysouk
p1818
aVPhotoStaples
p1819
aVVillaRotana
p1820
aVAmeera_Bshmoo5i
p1821
aVLJassem
p1822
aVheraldland
p1823
aVRehanAziz4
p1824
aVkhalidradwan81
p1825
aVtariqjaber
p1826
aViflyprivatecom
p1827
aVMichal_Zylinski
p1828
aVlulwaisnthere
p1829
aVAutomodExDubai
p1830
aVRafaiWaleed
p1831
aVwecipher
p1832
aVjasperjn
p1833
aVBesthomeMove
p1834
aVZiadGhantous1
p1835
aVJonahLupton
p1836
aVTammyFacey
p1837
aVahmed_m_samir
p1838
aVMonteCarloStars
p1839
aVWR_events
p1840
aViyadtb
p1841
aVqpf_online
p1842
aVclaudiostefani4
p1843
aValwahda03
p1844
aVdesertchill
p1845
aVindianzrulz
p1846
aVTogaomer
p1847
aVsaramiss1
p1848
aVMESportsTalk
p1849
aVjacobsasi
p1850
aVmob_2986EFE2
p1851
aVEmoArtJunky
p1852
aVDubaiwoodTV
p1853
aVDesigni_DubaiSC
p1854
aVMyDubaiCity
p1855
aVmayajoubran
p1856
aVloai_taha
p1857
aVSammyIsmail1
p1858
aVSerhatSoyuerel
p1859
aVMohamad_Maan
p1860
aVcoldcolt
p1861
aVTalkaboutM
p1862
aVlaithz
p1863
aVKhalidAlKhudair
p1864
aVClaudiaCurici
p1865
aVjamesbonddubai
p1866
aVJaiTolani
p1867
aVylovaa
p1868
aVIndigoDubai
p1869
aVAmlakRealEstate
p1870
aVUAEpropertyDeal
p1871
aVMrPeaker
p1872
aVDTNights
p1873
aVUNOUAE
p1874
aVsajiphilips
p1875
aVwaqasidrees
p1876
aVhenthornewvueb9
p1877
aVtourisme155
p1878
aVwecarecopy
p1879
aVandriirwanto
p1880
aVrpredubai
p1881
aVJoe__alone
p1882
aVlahusa_
p1883
aVmontazeram
p1884
aVKarloAlfredo
p1885
aVata_205
p1886
aVmarlysal
p1887
aVLeithMatthews
p1888
aVAfkarbyIdeas
p1889
aVGNFocus
p1890
aVnabeelnaved
p1891
aVuaeflowers
p1892
aVgeeschaikh
p1893
aVSensAsia
p1894
aVEntrepreneurUAE
p1895
aVPaperpennn
p1896
aVSwitchDubai
p1897
aVJessicaAsher
p1898
aVCherminebahous
p1899
aVgnuseibeh
p1900
aVFlookaUAE
p1901
aVshocho_auh
p1902
aVahmedmallah
p1903
aVsalhal1
p1904
aVgamehopae
p1905
aVdapoerkita_dxb
p1906
aVVOGLIAstore
p1907
aVnadiakashef
p1908
aVIGNme
p1909
aVArabianIncenti1
p1910
aVpennymather
p1911
aVmazendubai
p1912
aVKamutiDXB
p1913
aVAmeliaMayQ
p1914
aVDvitaminAgency
p1915
aVDealz4free
p1916
aVnayabizmoney
p1917
aVTALKWALK
p1918
aVahmadshassouna
p1919
aVwantaninvestor
p1920
aVEliteMedical2
p1921
aVKatieTipple1
p1922
aVMikeONeilRocks
p1923
aVFikra_Group
p1924
aVAmbeeraK
p1925
aVibizarentnow
p1926
aVPlasticDubai
p1927
aVB2BTV_MENA
p1928
aVboulabaise
p1929
aVbesteakcakese
p1930
aVmicroRima
p1931
aVEntreprenMENA
p1932
aVSo_CalledSocial
p1933
aVViscomite3
p1934
aVMissMatmazel
p1935
aVPYFpledge
p1936
aVShopGoME
p1937
aVMESocialMedia12
p1938
aVOliveGourmetRes
p1939
aVFawazShak
p1940
aVNovoCinemas
p1941
aVrenupshenoy
p1942
aVkarinwaleed
p1943
aVWowhatAdeal
p1944
aVaddiktivegamer
p1945
aVmaheshjr
p1946
aVrajenl
p1947
aVMehmet_turki
p1948
aVQuiterieb
p1949
aVeyadsallam
p1950
aVJULIEHASSON
p1951
aVzeddyiskandar
p1952
aVehabarakat
p1953
aVdinkarjoshi
p1954
aVAUSLivingSocial
p1955
aVExceedGulf
p1956
aVFifthRingDXB
p1957
aVKook_KARDASHIAN
p1958
aVMAZChtdAccounta
p1959
aVAbsharRestauran
p1960
aVadapptmobile
p1961
aVt0xic__angel
p1962
aVRichysDubai
p1963
aVPreciousnena44
p1964
aVbabgi
p1965
aVRCBenz
p1966
aVeureecamoment
p1967
aVDubaiExpatriate
p1968
aVPrivateJetChar1
p1969
aVNBALI1967
p1970
aVOmashOma
p1971
aVegyptian_irish
p1972
aVVersionBDesign
p1973
aVomayyaa
p1974
aVtariqawan_345
p1975
aVMSIMiddleEast
p1976
aVAI_Dubai
p1977
aVSignatureG
p1978
aVDreisenstock
p1979
aVnajkidwai
p1980
aVSelamettinDAYAN
p1981
aVSellmysolar
p1982
aVChantemmm
p1983
aVRaseen9
p1984
aVShorbagyH
p1985
aVEddyMaroun
p1986
aVFourQuants
p1987
aVah200321
p1988
aVbashirimran
p1989
aVsarahmnh
p1990
aVAlserkalAvenue
p1991
aVmosaicliveworld
p1992
aVSimaNajjar
p1993
aVOutlookIsNew
p1994
aVHarvardarabaa
p1995
aVulucyuca
p1996
aVorionghf
p1997
aVKarimGhandour
p1998
aVRaniaKanaan
p1999
aV_Ananasa
p2000
aVMohammedVt5
p2001
aVKitschCounter
p2002
aVJoelleYazbeck
p2003
aV1creativeanimal
p2004
aVDigitalsarcasm
p2005
aVinnovagals
p2006
aVIbaMasood
p2007
aVM_a_Rrealestate
p2008
aVstevenpinto
p2009
aVdanchami
p2010
aVakhantweets
p2011
aVIBYAwards
p2012
aVEl_Agizi
p2013
aVNetworkMag
p2014
aVDarineAshy
p2015
aVclassi4uae
p2016
aVEyadKhtb
p2017
aVmohamedkash
p2018
aVmeastock
p2019
aVHK_Dubai
p2020
aVSmSuey
p2021
aVkulaib
p2022
aVBanafshe
p2023
aVFireflyDubai
p2024
aVTerotalo
p2025
aVmonispk
p2026
aVvarun_kv
p2027
aVBizDhaka1
p2028
aVnoorshawwa
p2029
aVAlchemyDXB
p2030
aVHireRightt_ae
p2031
aVsoknayan
p2032
aVBroderickCom
p2033
aVme_Anush
p2034
aVjj_BCFJRealty
p2035
aVFransienM
p2036
aVAlissarEvents
p2037
aVmeezeus
p2038
aVADIBF
p2039
aVstabishere1975
p2040
aVrainbowspells
p2041
aVjenhardie
p2042
aVburodsin_tweets
p2043
aVaparnashivpuri
p2044
aVmmalihashmi
p2045
aVquran_award
p2046
aVfedyukstanislav
p2047
aVnice_msh
p2048
aVhydenp
p2049
aVEvelynKimCRE
p2050
aVRaphaelRohit
p2051
aVMyAutoMobile_12
p2052
aVlivinleb
p2053
aVTishTashTalks
p2054
aVomarsamra
p2055
aVHirschJade
p2056
aVPlatinumlist
p2057
aVsocialaimagency
p2058
aVMohcineMas
p2059
aVdubai_4ever
p2060
aVAliaAlNahawi
p2061
aVfascinatemedxb
p2062
aVThanMerrill
p2063
aVHAMAILGALLERY
p2064
aVFreshinDubai
p2065
aVLonnie_Romos
p2066
aVBeirutPlus
p2067
aVCrocsDubai
p2068
aVMissNadsy
p2069
aVChoueiri86
p2070
aVAppandAbove
p2071
aVVibesAgency
p2072
aVMissMaxine
p2073
aVRachaMourtada
p2074
aVbizgroupuae
p2075
aVHayahTaimur
p2076
aVcmastoras
p2077
aVstephterroir
p2078
aVAwinma1
p2079
aVsami_saied
p2080
aVFBerjaoui
p2081
aVtasteofdubai
p2082
aVGoodHealth12
p2083
aVKat_AHLConnect
p2084
aVThreatHunting
p2085
aVskybluedubai
p2086
aVLilMpr
p2087
aVTheJulieH
p2088
aVeinunayma
p2089
aVsallification
p2090
aVFranchise_ME
p2091
aVBembelstadt
p2092
aVNeelyim72
p2093
aVSocializeBlue
p2094
aVSarah_W_Writes
p2095
aVSaam03149491568
p2096
aVKtabaza
p2097
aVidaaslaa
p2098
aVebaaelmelik
p2099
aVRashid_Alkuwari
p2100
aVacepilotkhan
p2101
aVnesma_2010
p2102
aV7samer09
p2103
aVSafi_Sweets_UAE
p2104
aVNoamanSayed
p2105
aVzinebmansour
p2106
aVTop_Cat_Dubai
p2107
aVELCaptainG
p2108
aVSheikhandShake
p2109
aVMoneySouq
p2110
aVfarhatreine
p2111
aVfenderstruck
p2112
aVrahiqelganaa
p2113
aVposbmedia
p2114
aVThisisUAE
p2115
aVHLARIG
p2116
aVExpatDocs
p2117
aVConsultRamy
p2118
aVNermineAshraf
p2119
aVsavingsplanuae
p2120
aVKrissyQuebec857
p2121
aVdushyantvbhatia
p2122
aVFlipFlopArabia
p2123
aVAhmedSami112
p2124
aVbeingmelina
p2125
aVBinduRai
p2126
aVIrfanLogic
p2127
aVkumari11
p2128
aVAliceHaine
p2129
aVSmartSolutionsX
p2130
aVBabymania2
p2131
aVGlos365
p2132
aVMENA_CFO
p2133
aVTaiwanWebMuseum
p2134
aVnassefnada
p2135
aVBubbles_Minty
p2136
aVhumangm
p2137
aVcarcareuae
p2138
aVDoodleClick
p2139
aVarabgal
p2140
aVDMFAwards
p2141
aVSaydehZghondy
p2142
aVStonekhan
p2143
aVMessidi
p2144
aVRA_E_Marquez
p2145
aVraychdigitalink
p2146
aVArbannoDubai
p2147
aVsanayairania
p2148
aVSal261
p2149
aVVidyaSunil
p2150
aVsorayahomes
p2151
aVRakimAhmed
p2152
aVuaeforfree
p2153
aVHamadAlsha3r
p2154
aVFindDubaiHotels
p2155
aVAbudhabidin
p2156
aVJoCompassion
p2157
aVbailanie25
p2158
aVmrsdubai
p2159
aVBellaKay
p2160
aVMohamedSFahmy
p2161
aVCalthomat
p2162
aVmarhabadeals
p2163
aVArtDecoGroup
p2164
aVkebab_shop
p2165
aVGulfMasterclass
p2166
aVakterbithi
p2167
aVmourad1015
p2168
aVArtintheCity
p2169
aVbuynowbloglater
p2170
aVQHomeDecor
p2171
aVsoundsnackmedia
p2172
aVB_U_Media
p2173
aVabouzeid
p2174
aVsherifsaleh5
p2175
aVChinamedicaltou
p2176
aVaflingwithlife
p2177
aVIORI_4
p2178
aVDanBolton01
p2179
aVNameer79
p2180
aVDiamondsDubai
p2181
aVTheBlueSmokey
p2182
aVmoversinuae
p2183
aVTrendExhaustion
p2184
aVKingsMusic2012
p2185
aVCBeckstedImages
p2186
aVHishamParvez
p2187
aVNabdou
p2188
aVTheFixturesQ8
p2189
aVMina_Maher
p2190
aVJAILLIFEUK
p2191
aVbiosme
p2192
aVkenshinf
p2193
aVLord_Dawon
p2194
aVHasanTabina
p2195
aVMJunaid50
p2196
aVCustomer360ME
p2197
aVAbuDhabiCG
p2198
aVNasLance
p2199
aVGreenPlace2Work
p2200
aVnkafafi
p2201
aVasd_1211
p2202
aVIntelligentSME
p2203
aVsartori_sartori
p2204
aVAZestful
p2205
aVhammad_MK
p2206
aVbareitinlinen
p2207
aVsotoandthesuit
p2208
aVDLEnewyork
p2209
aVOptionTI
p2210
aVMrStuartMorgan
p2211
aVTheresaTsui
p2212
aVmobiliseblog
p2213
aVKerriyub
p2214
aVziadaljamaan
p2215
aVDesleyHumphrey
p2216
aVshochoUAE
p2217
aVTheLovelyJacqui
p2218
aVTaurikAbuznada
p2219
aVjudhi
p2220
aVSonruMENA
p2221
aVvlienhill
p2222
aValmarakeb
p2223
aVRibalBtaddini
p2224
aVDubaiEyeNight
p2225
aVsaroivan
p2226
aVEcoBuzzBon
p2227
aVnureeahmmed
p2228
aVSameerSortur
p2229
aVamghattas
p2230
aVAssistAE
p2231
aVFELLAGUI
p2232
aVcs4mc
p2233
aVNicolaGregson
p2234
aVZo_iR
p2235
aVShazilX
p2236
aVseaearthmarei
p2237
aVPlus7Mobile
p2238
aVizza_izzie
p2239
aVDubai_Packages
p2240
aVjxvclameya
p2241
aVALWADIHOLDING
p2242
aVmediaGatewaysME
p2243
aVdarryl_big1
p2244
aVashrfabo
p2245
aVFeistyRoOdy
p2246
aVterrence_brown
p2247
aVMegCoops
p2248
aVangelz999
p2249
aVJasonJGibb
p2250
aVME_Leaders
p2251
aVDaniindubai
p2252
aVchaficchahine
p2253
aVSuzzanasmagic
p2254
aVStevenNguyen15
p2255
aVmahmodRamadan
p2256
aVSIALMiddleEast
p2257
aVjimikeene
p2258
aVTradingInfinity
p2259
aVdxbdestinations
p2260
aVTalentQuestAfri
p2261
aVTAREKELKOLY2006
p2262
aVJanaosta
p2263
aVAlQasba
p2264
aVCclubAE
p2265
aVasiapack
p2266
aVwilliamhines
p2267
aVRishielleWinks
p2268
aVi_Farukh
p2269
aVMichaelWShikuku
p2270
aVDrinkExpo
p2271
aVchalleyn
p2272
aVUdaysTweets
p2273
aVmr_creazy
p2274
aVVintiBhatia
p2275
aV1LS_Photo_Dubai
p2276
aVDandelion__ME
p2277
aVHousePartyS
p2278
aVnat_wickenden
p2279
aVayengapa
p2280
aVistiso
p2281
aVlocalsearchUAE
p2282
aVNesarkhan
p2283
aVReemaGB
p2284
aVPierImportUAE
p2285
aVrick_dev1
p2286
aVkarim_dallel
p2287
aVmessisife
p2288
aViyerz
p2289
aVprasannavenugop
p2290
aVHRIT_Dubai
p2291
aVTwingeDXB
p2292
aVStewartSociety
p2293
aVTerryFoundation
p2294
aVkj_sdm
p2295
aVsyedmdahsan1996
p2296
aVAlexandraIntl
p2297
aVLocaUae
p2298
aVRuby_lion
p2299
aVVisualWindows
p2300
aVimcsdubai
p2301
aVH_ALsaqaf
p2302
aVMabuzd
p2303
aVPinnaclefitdxb
p2304
aVbaadilcom
p2305
aVNickf_IT
p2306
aVtweeAlHalabieet
p2307
aVSarah888
p2308
aVmukesh1234
p2309
aVoezzeddine
p2310
aVfrittatun
p2311
aVElf_De_La_Nuit
p2312
aVGanacheChoclt
p2313
aVcaseyflies
p2314
aVMehazonious
p2315
aVnewedgetalent
p2316
aVMindTalk3
p2317
aVsanjaykrishna
p2318
aVSCDxB
p2319
aVfsl
p2320
aVsnessim
p2321
aVtarekaminz
p2322
aVndakkak
p2323
aVFNDesignsDubai
p2324
aVmafranji
p2325
aVkmsarkis
p2326
aVRamziJaber
p2327
aVSadia_Noori
p2328
aVsandboxws
p2329
aVBoraie
p2330
aVkhaledalzahhar
p2331
aVCyberZizo
p2332
aVDealSoukDubai
p2333
aVMintTwistUAE
p2334
aVdcgguide
p2335
aVSchoolBusDubai
p2336
aVthejobdepotbiz
p2337
aVTheDubaiDaily
p2338
aVIphonerepairdu1
p2339
aVsambhu07
p2340
aVKatedarcybooks
p2341
aVminhaj_sabina
p2342
aVmegaconcerts
p2343
aVlagretait
p2344
aVTheHolisticIns
p2345
aVLaGretaDXB
p2346
aVrameshfinman
p2347
aVHazemHass
p2348
aVGreenCarDubai
p2349
aVFujifilmME
p2350
aVHitTheDeals
p2351
aVGhaidaGhantous
p2352
aVgulnar73
p2353
aVNaeemat
p2354
aVOrbisFM
p2355
aVDependent_UAE
p2356
aVsarahahmed54
p2357
aVLararouyres
p2358
aVpaultrayman
p2359
aVNeil_S_Parmar
p2360
aVsabrinasolaiman
p2361
aVidealspend
p2362
aVMarwanAdel10
p2363
aVJUNO_AE
p2364
aVetihadsecurity
p2365
aVTotalComPR
p2366
aVDIJW
p2367
aVcarlo1234562342
p2368
aVQuintMENA
p2369
aVAyman_AbdElazim
p2370
aVCarinosDubaiUAE
p2371
aVTheFirstGroupCo
p2372
aVjamesnkerr
p2373
aVtechstartups
p2374
aVahmadtantawy
p2375
aVsahrilBarker21
p2376
aVAmarjitSaggu
p2377
aVdrnasrine
p2378
aVrascottdotcom
p2379
aVInnovaMachine
p2380
aVWailJ
p2381
aVaka_media
p2382
aVTheoVasileiadis
p2383
aVtedtots
p2384
aVUnwiredFM
p2385
aVlurnid
p2386
aVzeedna
p2387
aVnehal13
p2388
aVArtsWorkshop_AD
p2389
aVpsyence_fiktion
p2390
aVtakiwall
p2391
aVrchakaki
p2392
aVMuzTweets
p2393
aVawildebeest
p2394
aVGhaithGhantous
p2395
aVedudivadxb
p2396
aVmartha_fitzh
p2397
aVYasmeenAbuamer
p2398
aVshafikakhan
p2399
aVmianskei
p2400
aVTech2GoDubai
p2401
aVMBOpportunities
p2402
aVGetJobsinDubai
p2403
aVtopladwaqas
p2404
aVLeoPereyra2
p2405
aVDubai_CEOs
p2406
aVDFCDubai
p2407
aVWSI_DUB
p2408
aVnadine_or
p2409
aVSara_Falaknaz
p2410
aVatko1978
p2411
aVMaanuShah
p2412
aVMelEuverte
p2413
aVantonywalto
p2414
aVelkedebacker
p2415
aVimshalkashif
p2416
aVeezed_com
p2417
aVduFranchise
p2418
aVqarayanews
p2419
aVStoliArabia
p2420
aVRizwanAkram3
p2421
aVTalismanOfRa
p2422
aVRoRamchandani
p2423
aVRoyal_Edge
p2424
aVybromero
p2425
aVDealclose
p2426
aVartvisionuae
p2427
aVroulahaddad
p2428
aVeouae
p2429
aVTeresiaLandgreb
p2430
aVinkmash
p2431
aVDailydeals_now
p2432
aVJVRonquillo
p2433
aVgrexialbornett
p2434
aVjMCCATTY
p2435
aVInternetShowME
p2436
aVMarcoAzzali
p2437
aVAZARHRS
p2438
aVbevshemaine
p2439
aVChristiankasha
p2440
aVnasirbazaz
p2441
aVBalaTix
p2442
aVramiaraj
p2443
aVfebriana_hendra
p2444
aVhicamillai
p2445
aVHaydeeAranda
p2446
aVmojouni
p2447
aVpaintear
p2448
aVzaraaahhh
p2449
aVPooja_Dhiman
p2450
aVthekongregator
p2451
aVsplitrattan
p2452
aVhussainjassim
p2453
aVymansur
p2454
aVContinentalCfee
p2455
aVShadafarid
p2456
aVEnnemaikie
p2457
aVACazancev
p2458
aVMocahhh
p2459
aVriasinibibocom
p2460
aVroystercabral
p2461
aVajmmj
p2462
aVMoaliyusuf
p2463
aVWassim_Moumneh
p2464
aV800_PIZZA
p2465
aVibrahim_khalil_
p2466
aVUglyDucklingPho
p2467
aVwilliamjanse
p2468
aVSentinelBC
p2469
aVSuzanneStull
p2470
aVCiceroBernayPR
p2471
aVomarfarha
p2472
aVZoeticTweet
p2473
aVhasanrahana
p2474
aVoffshore_SEO
p2475
aVdigigeekster
p2476
aVcurvefinder
p2477
aVAtefhajeer
p2478
aVCampus_Cashy
p2479
aVmediamastersuae
p2480
aVRaulvinCoke
p2481
aViamnotsaudin
p2482
aVd_i_n_o
p2483
aVSeamusfla
p2484
aVMSRTrading
p2485
aVMINA_ELMEDL3
p2486
aVrim_mejri
p2487
aVjohnmbernard
p2488
aVnajamkh
p2489
aVkayytd
p2490
aVShruti_Sagar_
p2491
aVDJJEENO
p2492
aVBurntDealsLBN
p2493
aVangusgp
p2494
aVWallCravings
p2495
aVjunaidslife
p2496
aVSDInteriors
p2497
aVrmsbahamas
p2498
aValmalakisoftwar
p2499
aVCraveAndSnitch
p2500
aVpubalykhan
p2501
aVvivandihairspa
p2502
aVStrangeAmazon
p2503
aVIamEthanAsh
p2504
aVpnpegypt
p2505
aVmanpowerme
p2506
aVceedubai
p2507
aVyasisland
p2508
aVUAErealestateCo
p2509
aVfadighaly
p2510
aVfathy53
p2511
aVlama_lu
p2512
aVmaroun_baydoun
p2513
aVgobig_orgohome
p2514
aVDeuce9lives
p2515
aVallangrant
p2516
aVInstant_Skin
p2517
aVJacobSardini
p2518
aVthewristshop
p2519
aVapartmentsdubai
p2520
aVRoryWSJ
p2521
aVDeborah_Jane_
p2522
aVSangeeta_Dhanak
p2523
aV2012abas
p2524
aVcolor_zone
p2525
aVgarcia280
p2526
aVadsvine
p2527
aVyghazi
p2528
aVLauraCParkes
p2529
aVhshippey
p2530
aVfadysf
p2531
aVYasinBashar
p2532
aVMariamTemsah
p2533
aVBanderAlMutlaq
p2534
aVtjnammour
p2535
aVeigracee
p2536
aVpolikhanom
p2537
aVreshooom
p2538
aVfaridvakil
p2539
aVrsayegh
p2540
aVSaidAmin
p2541
aVredprince
p2542
aVgeoffvanwijk
p2543
aVBrianSigafoos
p2544
aVbeiruta
p2545
aVahayash
p2546
aVSabaFaghihi
p2547
aVMikeisChristian
p2548
aVmsalem
p2549
aValfredinsurance
p2550
aVKashmirforyou
p2551
aVdxbweb
p2552
aVMicaelaFitness
p2553
aVkasawne
p2554
aVNoonTachkeel
p2555
aViBadawi
p2556
aVGrosperDubai
p2557
aVreachhamdy
p2558
aVDamienMcgurn
p2559
aVlamyoush
p2560
aVamouly_
p2561
aVlaroccainc
p2562
aV8leo
p2563
aVsandjunki
p2564
aVGhetto_Farceur
p2565
aVajaffarali
p2566
aVEm_Eah_Why
p2567
aVdesertedbeach
p2568
aVOurBPlanet
p2569
aVChelseyVeturis
p2570
aVMohamedSamatar
p2571
aVwkharma
p2572
aVjamiewestley
p2573
aVmohammad_molaei
p2574
aVkatherineshaver
p2575
aVUthMag
p2576
aVaaroncblevins
p2577
aVNevinePhillip
p2578
aVWantToBeMadRich
p2579
aVashekofti
p2580
aVDeepakTravels
p2581
aVPropertyFinder2
p2582
aVGenny_Barrios
p2583
aVAmandaBloud
p2584
aVSonyXperiaME
p2585
aVDrVikBatheja
p2586
aVcorefituae
p2587
aVPrmj_Services
p2588
aVAnlegerwohnung
p2589
aVKhalifaAlshamsi
p2590
aVFish4Sales
p2591
aVCEOWisdom
p2592
aVmakareem
p2593
aVMoeTalebEgypt
p2594
aVAhmadAnabtawi
p2595
aVtweetyourbeef
p2596
aVgavmcm4
p2597
aVgooseberrydubai
p2598
aVjamesAJcampbell
p2599
aVMedia_Beirut
p2600
aVmozcans
p2601
aVirwanrojali1
p2602
aVElleVeeMusic
p2603
aVzabrinna22000
p2604
aVPiranEsfahani
p2605
aVsoniaaliali
p2606
aVSally0813
p2607
aVahmednassef
p2608
aVKevin_A_ME
p2609
aVtrainingmobs
p2610
aVoptimalfitness1
p2611
aVhuss23
p2612
aVBert_Grogor
p2613
aVTarik3QL
p2614
aVenettleton
p2615
aVYorgosKlivo
p2616
aVPallaviSharma5
p2617
aVTricia_Nirvana
p2618
aVyallaapps
p2619
aVTarekLagrive
p2620
aVsonystyle2009
p2621
aVbabyblingUAE
p2622
aVrashazayat
p2623
aVarcelorINDIA
p2624
aVmbaaub
p2625
aVAishaSpecialK
p2626
aVRichelle_RSME
p2627
aVSUMFESTUK
p2628
aVmaxtfactor
p2629
aVjonosapien
p2630
aVBCRadio1031
p2631
aVProj_Partners
p2632
aVFayeed_1
p2633
aVRashaGhbari
p2634
aVevandavies1975
p2635
aVindiandigital
p2636
aVKristyTorre
p2637
aVUrbanEnergyDxb
p2638
aVMediaTizeME
p2639
aVUAE_smart
p2640
aVmuzaimkumba
p2641
aVMiriamtweets
p2642
aVramitaher
p2643
aVtamer3838
p2644
aVdealspace
p2645
aVEvansMitchell
p2646
aVGianNelson
p2647
aVZRealVillain
p2648
aVBriskEnergyCorp
p2649
aVmyexwardrobe
p2650
aVMinnieMoosa
p2651
aVrazashaik
p2652
aVideationbox
p2653
aVsirajahammad
p2654
aVAbdul_Basit
p2655
aVamna_alhaddad
p2656
aVgulfbroadband
p2657
aVannierosen
p2658
aVNadimHaddad
p2659
aVsarayanews1
p2660
aVByronKoller
p2661
aVbrlamine
p2662
aVGoNabitDoha
p2663
aVMarwanSharaikha
p2664
aVZenInteriorsUAE
p2665
aVVeryLame
p2666
aVnazmusa
p2667
aVTarteebMedia
p2668
aVLovelinksJewels
p2669
aVpaweliwanow
p2670
aVjennifer_e_hill
p2671
aVbizmediauae
p2672
aVBug029
p2673
aVwordsthatclick
p2674
aVasifmumtazkhan
p2675
aVDaraaaH
p2676
aVsuzanneradford
p2677
aVCARDUBAI
p2678
aVCrownePlazaAUH
p2679
aVDaniWannous
p2680
aVTAPPNetworks
p2681
aVgitexnewscom
p2682
aVVistaRoofTop
p2683
aVsiksik
p2684
aVmrsmadisondubai
p2685
aVEmiratiAlDente
p2686
aVzahidk
p2687
aVAbdi
p2688
aVibtikarati
p2689
aVlab_digital
p2690
aV247NYWEBDESIGN
p2691
aVDCSSUAE
p2692
aVPalmSpecialists
p2693
aVEPIC_Dubai
p2694
aVFMGUniversity
p2695
aVabouahmadmousa
p2696
aVWasSMn
p2697
aVmojo_pr
p2698
aVamirskh
p2699
aVfxtfitness
p2700
aVSOCIAL_EYEZ
p2701
aVGulfFinance
p2702
aVMashaeldakheel
p2703
aVwebsitecatalog
p2704
aVKunLao513
p2705
aVmagicaldubai
p2706
aVActiveSportsUAE
p2707
aVbenckenstein
p2708
aVZoneatAtlantis
p2709
aVi_Shopaholic
p2710
aVvidalsalon
p2711
aVMaisazar
p2712
aVprotendersinc
p2713
aVMartinC8
p2714
aVshenimr
p2715
aVDesignForRansom
p2716
aVCTT_PR
p2717
aVbazaartweets
p2718
aVphysicreadings
p2719
aVramyshwaiter
p2720
aVlittlexpl
p2721
aVJitenM
p2722
aVvipinbhaskar
p2723
aVDubaiCrazy
p2724
aVyousnasserous
p2725
aVFitFlopME
p2726
aVRennoCG
p2727
aVMarketingIIR
p2728
aVRudolfJabre
p2729
aVJadAizarani
p2730
aVDecathlonDubai
p2731
aVresgaperstelo
p2732
aVtheianee
p2733
aVOOHADVERTISING
p2734
aVcharlotteseguin
p2735
aVRELEVANCEworld
p2736
aVLindaMariaSaab
p2737
aVGoNabitMuscat
p2738
aVDanielle_Baiz
p2739
aVhabib_b
p2740
aVbanbarkawi
p2741
aVDokkankom
p2742
aVmay_hanna
p2743
aVCelfixX
p2744
aVduPhone_me
p2745
aVjahiregen
p2746
aVzoyapasha
p2747
aVshawn_vaz
p2748
aVadmjeeinsurance
p2749
aVMConsultants4U
p2750
aVGideonSimeloff
p2751
aVNouvriet
p2752
aVcrazyninjagul
p2753
aVTheManalyst
p2754
aVVoila_Dubai
p2755
aVmughrrred
p2756
aVTecomPoolShark
p2757
aVMarcopoloHotel_
p2758
aVAskExplorer
p2759
aVHereandNowDubai
p2760
aVJIsoliman
p2761
aVtmhel
p2762
aVJohnFerrieArt
p2763
aVSEPTPR
p2764
aVymalsaleh
p2765
aVKensington_DXB
p2766
aVCrownePlazaDXB
p2767
aVAbedShaer
p2768
aVOrnaKnowsDubai
p2769
aVRichardBagshaw
p2770
aVRabih
p2771
aVejaz_ss82
p2772
aVtrendslice
p2773
aVHorecaLebanon
p2774
aVobispo360
p2775
aVfrostboxcom
p2776
aVdxbdubai26
p2777
aVStephChaanine
p2778
aVonepercentgym
p2779
aVElHuybrechts
p2780
aVJ0eGriffith
p2781
aVMjumean
p2782
aVtdaouk
p2783
aVRealDealME
p2784
aVspagenie
p2785
aVWheatgrassPlus
p2786
aVibayazidi
p2787
aVsamgillen999
p2788
aVHTCMEA
p2789
aVbaddar1
p2790
aVadellus_maximus
p2791
aV_gosia
p2792
aVKristallWorms
p2793
aValnassnews
p2794
aVmsoukieh
p2795
aVahmed_alsaidi
p2796
aVDaliaAlSaid
p2797
aVsisaadeh
p2798
aVketakibanga
p2799
aVsdkaaa
p2800
aVEwalls_s
p2801
aVimcadvertising
p2802
aVhassanaburassa
p2803
aVH_Shouli
p2804
aVAbuDhabiGeek
p2805
aVDubaiLadiesClub
p2806
aVaccountwarrior
p2807
aVBeaScodrea
p2808
aVDesertBoyConway
p2809
aVSaman_Sadeghian
p2810
aVyour_place
p2811
aVImAnnaRoberts
p2812
aVFaridGasim
p2813
aVBuildWoW
p2814
aVBarryg09
p2815
aVjakechism
p2816
aVelliottbastien
p2817
aVNoraLa86
p2818
aVjfstreetfood
p2819
aVahfyounes
p2820
aVELZHI
p2821
aVIntercatgroup
p2822
aVabdullawissam
p2823
aVbrandsofuae
p2824
aVEventivityDubai
p2825
aVanncaryn
p2826
aVDesertcuba
p2827
aVgcgreg
p2828
aVyassinalshall
p2829
aVTalalAlShami
p2830
aVstmoritzmoe
p2831
aVallanahaist
p2832
aVJobTruth
p2833
aVuaefoodexplorer
p2834
aVDxbChris
p2835
aVvishaybhatia
p2836
aVZ_policy
p2837
aVDigitalOneMe
p2838
aVLumaM
p2839
aVKaraokeSong
p2840
aVsabaza
p2841
aVjgadalla
p2842
aVayaindubai
p2843
aVLTuae
p2844
aVuesystemsco
p2845
aVGameWorldME
p2846
aVmaheen
p2847
aVPhotoboothME
p2848
aVnaseemfaqihi
p2849
aVAHidiq
p2850
aVahmedmyacoub
p2851
aVhatemzalloum
p2852
aVVeliaWestland
p2853
aVNyinaynyi
p2854
aVafif_k
p2855
aVrohamg
p2856
aVriadabdallah
p2857
aV4fortunecookies
p2858
aVjwartwedding
p2859
aV_EmirMail_
p2860
aVdhavaldesaidxb
p2861
aVMaroufH
p2862
aVsumosushibento
p2863
aVCAbN
p2864
aVAmandaVega
p2865
aVhiflynjim
p2866
aVNourAlk
p2867
aVmediaventuraUK
p2868
aVmomentaryawe
p2869
aVAlQudrahAdv
p2870
aVpoorchildrens
p2871
aVfouaditani
p2872
aVCityBuild_AD
p2873
aVbenazirp
p2874
aVStevenZoernack
p2875
aVLesleyCully
p2876
aVistechsoft
p2877
aVShadiEideh
p2878
aVcraigdeakin
p2879
aVMrNerdyFace
p2880
aVMrsDiTaylor
p2881
aVthejamjardubai
p2882
aVbehlulm
p2883
aVwili
p2884
aVrachaeljbrown
p2885
aVohne_mist
p2886
aVprinteruae
p2887
aVRebelBrown
p2888
aVbrownsugarluv
p2889
aVclubleb
p2890
aVbluesponge
p2891
aVwikinold
p2892
aVnyeenong
p2893
aVsarahcasselman
p2894
aVjuliaspencerdxb
p2895
aVcrea8iveart
p2896
aVDale_Horton
p2897
aVshak
p2898
aVnaijul
p2899
aVEmiratesHills
p2900
aVtelnasser
p2901
aVOmarMadi
p2902
aVBenturquia
p2903
aVrakcompany
p2904
aVMyDowntownDubai
p2905
aVihrpm_dxb
p2906
aVnermean
p2907
aVmach5000
p2908
aVThatGuyNoman
p2909
aVtandempartners
p2910
aVleclerca
p2911
aVsaimajabeen001
p2912
aVAdbrief
p2913
aVisparklefairy
p2914
aVhiba_alzahabi
p2915
aVSarachemmaa
p2916
aVrobertwilson18
p2917
aVBlogliterati
p2918
aVrupaantony
p2919
aVmakehappytimes
p2920
aVBloodChannel
p2921
aVKelliDienhoff
p2922
aVSHAPEMAGME
p2923
aVMichaelByrne84
p2924
aVahmadghalaini
p2925
aViJordanEvents
p2926
aVhabibahamid
p2927
aVnormadomains
p2928
aVInterConDFC
p2929
aVMurdochUniDubai
p2930
aVsamergeissah
p2931
aVfortecreative
p2932
aVSandyPantsShop
p2933
aVMicrosoftJordan
p2934
aVPets_Delight
p2935
aVsugarpoppy
p2936
aVMMSDubai
p2937
aVredlinenews
p2938
aVRedBullUAE
p2939
aVhamadmj
p2940
aVkhalidfakhouri
p2941
aVNKDPizzaUSA
p2942
aVMaliZomg
p2943
aVdigitaldanful
p2944
aVGreenEyesDu
p2945
aVKharabeeshGulf
p2946
aVuchilles
p2947
aVsimonnestel
p2948
aVKeychainDesktop
p2949
aVUAECarousel
p2950
aVIamDhiren
p2951
aVlohanasunil
p2952
aVGulf4Good
p2953
aVEinsteinDiva
p2954
aVtechnolomy
p2955
aVant_miles
p2956
aVdxbphotographer
p2957
aVtomislavbilic
p2958
aVHebaHadad
p2959
aVkhusseini
p2960
aValanawitte
p2961
aVsajjadk
p2962
aVYourQueenS
p2963
aVMotea_Alwan
p2964
aVrijosh
p2965
aVSheetal_Rajan
p2966
aVDLClark
p2967
aVJamie_Hart_
p2968
aVYoung_Times
p2969
aVQTR8_
p2970
aVloulsk
p2971
aVasad
p2972
aVClaire_Fenner
p2973
aVClaire_Hauser
p2974
aVkarensaba
p2975
aVGoNabitSharjah
p2976
aVSMEadvisorME
p2977
aVDonCooper
p2978
aVme360dubai
p2979
aVlonak01
p2980
aVYadigGlobal
p2981
aVTheNishaVarman
p2982
aVJETTcompany
p2983
aVzaatarwzeit
p2984
aVDrParvizND
p2985
aVrahulbhatiaIN
p2986
aValsallal
p2987
aVshaundownunder
p2988
aVannekejong
p2989
aVstevehurcombe
p2990
aVsoumyapr
p2991
aVcdmh
p2992
aVhusseymichael
p2993
aVchinmaydani
p2994
aVkbassyouny
p2995
aVben_flanagan
p2996
aVtechnorabia
p2997
aVAmsiaMotors1
p2998
aVtbeyond
p2999
aVmoodeey
p3000
aVMacworldME
p3001
aVMeghna_Kothari
p3002
aVmetrotoronto
p3003
aVMediaScientist
p3004
aVmaiabdelqader
p3005
aVskaramist
p3006
aVislamelhosary
p3007
aVarababah
p3008
aVCaroleBitar
p3009
aVdivinedivz
p3010
aVTheGhazal
p3011
aVYasminMMK
p3012
aVIrisAmira
p3013
aVOKIMiddleEast
p3014
aVAABME
p3015
aVClareandthecity
p3016
aVdjtrina
p3017
aVronaldwidha
p3018
aVj_beauchamp
p3019
aVlanahelweh
p3020
aVmay_habib
p3021
aVwalidelsaadany
p3022
aVa_gaffar
p3023
aVjaimestein
p3024
aVPriscillaJessup
p3025
aVEdelmanAbuDhabi
p3026
aVirnux
p3027
aVthebigstart
p3028
aVFahadosman
p3029
aVWEFatUAE
p3030
aVchristo_daniels
p3031
aVcharmainefernz
p3032
aVmetalityuae
p3033
aVLexBZ
p3034
aVmsliedrecht
p3035
aVPurpleNaNo
p3036
aVkokoloccomoco
p3037
aVSmadiNabil
p3038
aVneilpatel
p3039
aVsudhichandran
p3040
aVVME_Training
p3041
aVcuteurlme
p3042
aVfowzi75
p3043
aVGE_MENAT
p3044
aVMRrickythedog
p3045
aVHostingUAE
p3046
aVMoodyMohd
p3047
aVysawalha
p3048
aVmcarun
p3049
aVMazen_Hallaway
p3050
aVLydinthemiddle
p3051
aVConnect_Peers
p3052
aVmajorsteadman
p3053
aVSalehAlBraik
p3054
aVMaybeNow_Dubai
p3055
aVXboxGulf
p3056
aViAmHamii
p3057
aVana_you
p3058
aVMstr_Series
p3059
aVBassamSaifi
p3060
aVronmou
p3061
aVGITEXShopper
p3062
aVbazflaz75
p3063
aVBlazon_Comms
p3064
aVVirtuzone_UAE
p3065
aVPeekabooDubai
p3066
aVsaadleb
p3067
aVtheBoomBus
p3068
aVKidZaniaDubai
p3069
aVbeetletweets
p3070
aVTToukan
p3071
aViaghabi
p3072
aVSheikh_Muhammad
p3073
aVabedagha
p3074
aVZealousKitty
p3075
aVAlinaElliss
p3076
aVabuquboh
p3077
aVAlexDubizzle
p3078
aVDubaiAquarium
p3079
aVChenineG
p3080
aVbiowomancoltd
p3081
aValaa_alomari
p3082
aVcyberfruit
p3083
aVTarek_Zn
p3084
aVsjahanbani
p3085
aVDigtalContentME
p3086
aVadnandawood
p3087
aVReelCinemas
p3088
aVDubaijobsblog
p3089
aVotahboub
p3090
aVemilhuzazanov
p3091
aVdisruptiveplay
p3092
aVtringz
p3093
aVJAresorts
p3094
aVIdeasFestivalME
p3095
aVSalsal87
p3096
aVLeoBurnettMEA
p3097
aVLBDDailyPlanner
p3098
aVsuhel_khan
p3099
aVDubaiIceRink
p3100
aVhozpitalityplus
p3101
aVhozpitality
p3102
aVPCWorldME
p3103
aVLaithNY
p3104
aVasifsafdar
p3105
aVMyDubaiLife
p3106
aVkudzumarketing
p3107
aVmy807t
p3108
aVghayath
p3109
aVcoffeemaverick
p3110
aVFaridaA
p3111
aVamirkabbara
p3112
aVkamaltolani
p3113
aVProdentme
p3114
aVsunilstveets
p3115
aVpenbladework
p3116
aVaamanatullah
p3117
aVNidoSaleh
p3118
aVcloudy08
p3119
aVRanaElEid
p3120
aVcyeedhamiduh
p3121
aValinisar1977
p3122
aVfreestyledivers
p3123
aVmommy_bird
p3124
aV2w8er
p3125
aVhealthtechie
p3126
aVSouhaElAssal
p3127
aVramzytwt
p3128
aVchaussure1
p3129
aVOlivia53534
p3130
aVKodakMe
p3131
aVthinklikeair
p3132
aVvineetsingh
p3133
aVJuditCloud
p3134
aVSMVisualLab
p3135
aVmobilizeall
p3136
aVReemayyash
p3137
aVWamdaME
p3138
aVRomelCamazuela
p3139
aVwillownavigator
p3140
aVsereen1987
p3141
aVGonabitRiyadh
p3142
aVthinkb4ubite
p3143
aVsocial4ce
p3144
aVdrenghala
p3145
aVmobimagME
p3146
aVAllenChrisMusic
p3147
aVelswell
p3148
aVMonashUnny
p3149
aVWAregmed
p3150
aVJumboWorld
p3151
aVTheJeffArigo
p3152
aVRansonBranding
p3153
aVBuildBrands
p3154
aVOOIZO
p3155
aVanamika13
p3156
aVAutoConvenience
p3157
aVgabiaad
p3158
aVSajidIsmail
p3159
aVBadInformation
p3160
aVAraNixIT
p3161
aVUsmanToxic
p3162
aVZeKliv
p3163
aVjusticeformydad
p3164
aVlhvesna3d06
p3165
aVtgalen0kk
p3166
aVVarunSimbaKapur
p3167
aVGulfHound
p3168
aVmita56
p3169
aVmetallicsmile
p3170
aVDubaiOutletMall
p3171
aVJamDubai
p3172
aVyasseraljundi
p3173
aVwastalebanon
p3174
aVUnitePBX
p3175
aVmediaMEcom
p3176
aVmohsin_dxb
p3177
aVdubeileen
p3178
aVTEDxSKE
p3179
aVRolazz
p3180
aVWinchesterGrand
p3181
aVMilkDubai
p3182
aVhazper
p3183
aVZatched
p3184
aVSalzzz
p3185
aVmarkhirst
p3186
aVnisreen_s
p3187
aVelsiraj
p3188
aVChevroletArabia
p3189
aVronaldzouein
p3190
aVAmalSerhan
p3191
aVbrian_sh
p3192
aVstevefmitchell
p3193
aVSUKARcom
p3194
aVCarriappa
p3195
aVlassyvee
p3196
aVjasondubai
p3197
aVAyaKabbara
p3198
aVSaudAlQaydi
p3199
aVyalmega
p3200
aVbuywidget
p3201
aVTariqEllahi
p3202
aVWaleedIIR
p3203
aVcdtipp
p3204
aVShamimScene
p3205
aVruchika_d
p3206
aVshimishah
p3207
aVAbablani
p3208
aVMrs_Amariei
p3209
aVCitronComs
p3210
aVOmarMSoudani
p3211
aVMayaZankoul
p3212
aVehsank
p3213
aV3a2ilati
p3214
aVfashionIN
p3215
aVleft_handesign
p3216
aVomarnas
p3217
aVMushAuto
p3218
aVIbtehalhussein
p3219
aVmetaxas
p3220
aVMiranda_Kusi
p3221
aVmeredithcarson
p3222
aVamorbautista
p3223
aVTweetTwitch
p3224
aVBeirutiBrit
p3225
aVMarieNakhle
p3226
aVDirkBrauner
p3227
aVVIADCares
p3228
aVdspijker
p3229
aVOhBoyDubai
p3230
aVZaalmaali
p3231
aVADACHatAssilah
p3232
aVtamraC2
p3233
aVJ_u_l_i_e_n
p3234
aVMySmBizCoach
p3235
aVcountryman2011
p3236
aVShusmo
p3237
aVAutofinderuae
p3238
aVrabihallaf
p3239
aVsadia__q
p3240
aVSuparnaMathur
p3241
aVfadisabbagha
p3242
aVb_YOU_nique
p3243
aViamjamieread
p3244
aVdianagregory
p3245
aVsyncjoe
p3246
aVDeeplyDip
p3247
aVBeshoyShehata
p3248
aVdanishfarhan
p3249
aVdutweetsFAIL
p3250
aVhandjani
p3251
aVshopalize
p3252
aVnihalsa
p3253
aVNajaFaysal
p3254
aVrosse111
p3255
aVeddydubai
p3256
aVyallaweb
p3257
aVgrowqatar
p3258
aVelectrovoodoo
p3259
aVnajibardawil
p3260
aVJadHindy
p3261
aVgautamtweets
p3262
aVmezzDubai
p3263
aVguioficiall
p3264
aVapanjabi
p3265
aVFunkyOzzi
p3266
aVhda2009
p3267
aVT_for_Tess
p3268
aVDiJoDubai
p3269
aVuouoAlotaibi
p3270
aVAlIslamiFoods
p3271
aVTenorSteve
p3272
aVumer12_asmat12
p3273
aVsageminzy
p3274
aVUnitedArt
p3275
aVFinancialUAE
p3276
aVHeartMindHappy
p3277
aVjithinm
p3278
aVNathaliespie
p3279
aVTamaraHabib
p3280
aVyousef
p3281
aVMansiiShah
p3282
aVsapient_MENA
p3283
aVmarketbuzzPR
p3284
aVGtxdls
p3285
aVmrmarkhardeman
p3286
aVThisIsRamy
p3287
aVharshaparpia
p3288
aVyellowpointsoft
p3289
aVtwimnc
p3290
aVkrisha_malditah
p3291
aVTrack2Table
p3292
aVsuznoro
p3293
aVmonakaraoui
p3294
aVMahmoodUAE
p3295
aV_nickjones
p3296
aVRaniaHabib
p3297
aVGraziaInsider
p3298
aVHoneyRoseDubai
p3299
aVBeirutMusicConf
p3300
aVITcompanyDubai
p3301
aVetisalat
p3302
aVKoolpep
p3303
aVchoochdubai
p3304
aVGoNabitAbuDhabi
p3305
aVveronicawebb
p3306
aVFadilicious1
p3307
aVdaniellekhoury
p3308
aVvineetham
p3309
aVDalicejt
p3310
aViyadbitar
p3311
aVsaiprasad88
p3312
aVcragster
p3313
aVLateNightLiveR2
p3314
aVRaniDababneh
p3315
aVchapsticking
p3316
aVMartinaCassidy
p3317
aVchiragnd
p3318
aVsunjayv
p3319
aVtharishjabbar
p3320
aVMyraElKhoury
p3321
aValveoakuna
p3322
aVM0rdyKnot
p3323
aVitsAmer
p3324
aVMerlinDigital
p3325
aVDigimediame
p3326
aVSamanthaDancy
p3327
aVAshChagla
p3328
aVdfusion_dubai
p3329
aVUrbanSouq
p3330
aVoraclexperts
p3331
aVnetadvantage
p3332
aVGWPStudio
p3333
aVRWnorthbridge
p3334
aVassuredlabor
p3335
aVJessicaSwann
p3336
aVginnydillon
p3337
aVb4ogilvy
p3338
aVsilv3rglee
p3339
aVsaadmbhatti
p3340
aValjamiat
p3341
aVwelovewafi
p3342
aVAbbasAlidina
p3343
aVbagriela
p3344
aVmediastow
p3345
aVSamShoaie
p3346
aVmkalthoum
p3347
aVjbseamo
p3348
aVpaulslist
p3349
aVthomaspower
p3350
aVshanumitty
p3351
aVGeorgeHopkin
p3352
aVAfricaEvents7
p3353
aVcarolineindubai
p3354
aVjackysuae
p3355
aVTobleroneArabia
p3356
aVseharanand
p3357
aVdrkassim
p3358
aVfadi_salameh
p3359
aVbrevardstyle
p3360
aVDineshdj
p3361
aV1on1in140
p3362
aVultimateholycow
p3363
aVMakansi
p3364
aVatifali
p3365
aVBreakingiPhone
p3366
aVTJMcCue
p3367
aValnaas_news
p3368
aVdrestuart
p3369
aVywadi
p3370
aVDelwood_Events
p3371
aVSocialityMedia
p3372
aVedesiree
p3373
aVjobsearchninja
p3374
aVafarha
p3375
aVrabihbrair
p3376
aVsobzijay
p3377
aVCampusRadioME
p3378
aVmeganlthomas
p3379
aVajmeraharsh
p3380
aVDanVoices
p3381
aVvideosnow
p3382
aV85Fifteen
p3383
aVRajeevSamtani
p3384
aVashwins
p3385
aVbuzzmethod
p3386
aVlinanawas
p3387
aVAdventureLive
p3388
aVRanyaNagi
p3389
aVMaennerschuhe
p3390
aVmosallem
p3391
aVIamrichwell
p3392
aVpatrickattallah
p3393
aVArabNetME
p3394
aVSeawingsDubai
p3395
aVsparr0ws
p3396
aVKDimachkie
p3397
aVitsdgc
p3398
aVbqchen
p3399
aVSyd_Congrejo
p3400
aVmustafayusuf
p3401
aVLoomni
p3402
aVnadinetoukan
p3403
aVDiastephanq8
p3404
aVNaharnet
p3405
aVDubaiCalendar
p3406
aVZomgInc
p3407
aVezzhelmy
p3408
aVTade161
p3409
aVYoko29263
p3410
aVrocksfeir
p3411
aVeQandil
p3412
aVEmailCopywriter
p3413
aVmszlakwatchera
p3414
aVVCpreneur
p3415
aVKhabbabHadhri
p3416
aVsami735
p3417
aVwajhy
p3418
aV_markminchin
p3419
aVairconperth
p3420
aVGoNabit
p3421
aVGalaTemptress
p3422
aVMarkSooHoo
p3423
aVkelliecarole
p3424
aVEcoCasa_PT
p3425
aVASDAABMPR
p3426
aVopalegy
p3427
aVhttpammy
p3428
aVdeepwittered
p3429
aVlaylatnt
p3430
aVonelastsoulks
p3431
aVnoaf_e
p3432
aVTheNextWebME
p3433
aVwallis_pr
p3434
aVRonyElNashar
p3435
aVsubermarket
p3436
aVafahad
p3437
aVclivecooper
p3438
aVremalventures
p3439
aVAbbieKendall
p3440
aVbinyahia
p3441
aVweegoh
p3442
aVRiyadh
p3443
aVinchoo
p3444
aVdjzaf
p3445
aVTinyCristie
p3446
aVGirlinYourShirt
p3447
aVCareerEnhancer
p3448
aVGeekFestBeirut
p3449
aVGraham_ontravel
p3450
aVerikluhrs
p3451
aVMeho_M
p3452
aVPistachio
p3453
aVdavidandrew7
p3454
aVmattbacak
p3455
aVHireLabs
p3456
aVlivebeirut
p3457
aVstartuplawyer
p3458
aV0tech
p3459
aVdr_voip
p3460
aVBroadPad
p3461
aViphone_mob
p3462
aVjayhmcbride
p3463
aVSamBond1
p3464
aVujjaldosanjh
p3465
aVIbrahimSaba
p3466
aVbianca_bartz
p3467
aVcinemacitydxb
p3468
aVfarhanLDN
p3469
aVimht
p3470
aVFaraver
p3471
aVRTsocialmedia
p3472
aVAAET09
p3473
aVleahsoleil
p3474
aVGrafdom
p3475
aVcollentine
p3476
aVTelecommuteHire
p3477
aVDubaiSunshine
p3478
aVhadinasereddin
p3479
aVfavouriteBOX
p3480
aVmohamed1mran
p3481
aVLSUDesiTiger
p3482
aVcityoflife
p3483
aV1businessarts
p3484
aVdeensharp
p3485
aVadamgretton
p3486
aVmsgfonz
p3487
aVclub9122
p3488
aVRoshp
p3489
aVGeordieArmani
p3490
aVstarterpeople
p3491
aVkamelasmar
p3492
aV_ANIESH
p3493
aVtarekkassar
p3494
aVrockinrobync
p3495
aVbloggmoney
p3496
aVUsed_Routers
p3497
aVMadisonMall
p3498
aVTeach_Insurance
p3499
aVJaxLicurse
p3500
aVSidToni
p3501
aVchatterforce
p3502
aVJenniferMeacher
p3503
aVtranslatetwit
p3504
aVKenwoodME
p3505
aVdegreesathome
p3506
aVsonalhingnekar
p3507
aVcomScore
p3508
aVKapilkb
p3509
aVsaeid_hejazi
p3510
aVFloridaDrawings
p3511
aVDivinePurpose
p3512
aVdanyfarha
p3513
aVMamaventsDubai
p3514
aVzoubibashar
p3515
aVadanhash
p3516
aVayh
p3517
aVDomainTini
p3518
aVwndrmedia
p3519
aVnjashanmal
p3520
aVTDAllonsy
p3521
aVmoneymakerLM
p3522
aVdubaibizmag
p3523
aVfree_wpthemes
p3524
aVMyWireArtNews
p3525
aVpersonera
p3526
aVmarcheMagazine
p3527
aVParulBh
p3528
aVOmarChr
p3529
aVpresch
p3530
aVnewps3games
p3531
aVSabinaAnaty
p3532
aVSydney_Roman
p3533
aVNajiNujumi
p3534
aVShawn0789
p3535
aVrealopinions
p3536
aVkim
p3537
aVjonsantillan
p3538
aVPeteDubai
p3539
aVSaleemFancy
p3540
aVannamcgovern
p3541
aVsandeepkb
p3542
aVpossumawesome
p3543
aVKeva_Dubai
p3544
aVScobleizer
p3545
aVMAROMASCoffee
p3546
aVRamiSaad
p3547
aVsotoyamap
p3548
aVANTIQUESGAL715
p3549
aVnanshanli
p3550
aVDubaiPaul
p3551
aVMartinJAllsop
p3552
aVGoGreenEmirates
p3553
aVhyzonia
p3554
aVsamerjay
p3555
aVwaseem_s
p3556
aVfiltrbox
p3557
aVDinaRollins390
p3558
aVReemSadek
p3559
aVbeeconfident
p3560
aVMan_In_The_Cube
p3561
aVSimranSamtani
p3562
aVzeDeal
p3563
aVFrederick_201
p3564
aVConservus
p3565
aVangelgold12
p3566
aVDoreneOdom67
p3567
aVWSMBLTD
p3568
aVMacSheikh
p3569
aVmarkcasselman
p3570
aVManarTouqan
p3571
aVtee1860
p3572
aVjudithyhh
p3573
aVzBusinessCoach
p3574
aVHotelGuideDubai
p3575
aVdong3stereo
p3576
aVPaulKinlan
p3577
aVArabCrunch
p3578
aVtariqha
p3579
aVRobert_Weston
p3580
aVFizzaDSD
p3581
aVvarghesedxb
p3582
aVSamsungGulf
p3583
aVWisdomTalks
p3584
aVlimeshot
p3585
aVsanynaufal
p3586
aVZiadZHamzeh
p3587
aVtweetalarms
p3588
aVsdarine
p3589
aVghassanb
p3590
aVbusinessblogs1
p3591
aVTabletAge
p3592
aVtobertomenlu
p3593
aVASSIAinwok
p3594
aVBNIInsomniacs
p3595
aVTheMonarchDubai
p3596
aVJerrysFord
p3597
aVwitmena
p3598
aVSarawette
p3599
aVcakeforthought
p3600
aVfreelancerdubai
p3601
aVGulfJobsMarket
p3602
aVfredherrera
p3603
aValtuslogic
p3604
aVHalaRamadan
p3605
aVfadig
p3606
aVhumeid
p3607
aVmarcaross
p3608
aVobjava4
p3609
aVEtonInstitute
p3610
aVtraveltojordan
p3611
aVdebora175
p3612
aValbertdias
p3613
aVsaleempc
p3614
aVecstaticviolet
p3615
aVfelixsim
p3616
aVAyman__Helmy
p3617
aVjamestuckerman
p3618
aVmandalayboi
p3619
aVsumaya
p3620
aVpcoffery
p3621
aVActiveDMC
p3622
aVQRCE
p3623
aVN2Ventures
p3624
aVBreatheBranding
p3625
aVBuffWise_Dubai
p3626
aVxlifegames
p3627
aVkea_jobs
p3628
aVJeanrenaudd
p3629
aVApeksha_says
p3630
aVAngusFraserMktg
p3631
aVXische
p3632
aVMank7799
p3633
aVayan1111111
p3634
aVrexdotae
p3635
aVKhanDubai
p3636
aVAn_Education
p3637
aVexecgeek
p3638
aVlivestrong
p3639
aVbiglia4ever
p3640
aVsamuraisamdxb
p3641
aVdubaisoundcity
p3642
aVglue_genie
p3643
aVRosieEldridge18
p3644
aVnikon_gcc
p3645
aVDigitalMktgME
p3646
aVAmmouni
p3647
aVLAURTON
p3648
aVfindyae
p3649
aVgleonhard
p3650
aVsaudiaspire
p3651
aVcaldidesign
p3652
aVAndrea_Angeli
p3653
aVzuzlaukova
p3654
aVuaesurvey
p3655
aVsalman
p3656
aVgtiadvisors
p3657
aVlancelee1989
p3658
aVMiniDG
p3659
aVusertesting
p3660
aVGlobrix
p3661
aVDownloadsIphone
p3662
aVfolowen
p3663
aVpendolino
p3664
aVHummusNation
p3665
aVsasj316
p3666
aVMKTG_Live
p3667
aVjeswinlopez
p3668
aVdubaibeat
p3669
aVAndy_Michaelsa
p3670
aVAmerAsian944a
p3671
aVcarrieagroffa
p3672
aVsuzanwoods11
p3673
aVNaeema
p3674
aVJashanmalMags
p3675
aVPhabi
p3676
aVgeoffpound
p3677
aVkenny_kelly
p3678
aVCWmeetup
p3679
aVjoelrubinson
p3680
aVmikespitzer
p3681
aVVonzoe
p3682
aVFaceLovely_4u
p3683
aVUAETweets
p3684
aVmartinlamp
p3685
aVBluewolf
p3686
aVmun911
p3687
aVhivokeng
p3688
aVBillyBluesDxb
p3689
aVpaulsammie07
p3690
aVmrwhiting
p3691
aVsharek961
p3692
aVaymanitani
p3693
aVHasmanh
p3694
aVhiconomics
p3695
aVnagisalloum
p3696
aVBIZtwofour54
p3697
aVgnhd
p3698
aValisinaei
p3699
aVthestressguru
p3700
aVBTME
p3701
aVdriscos
p3702
aVeamonncarey
p3703
aVbonningtontower
p3704
aVjmroberge
p3705
aVtrue_logic
p3706
aVbowmandan
p3707
aVkajz
p3708
aVtheodbago
p3709
aVnstockard
p3710
aVChuckBlakeman
p3711
aVchrisbonno
p3712
aVontheroadwithiv
p3713
aVJKWinnovation
p3714
aVFreshwaterFish
p3715
aVchousephine
p3716
aVLisaScales
p3717
aVqmeisusam
p3718
aVFFjohns
p3719
aV9714
p3720
aVvcfeedsopen
p3721
aVsusam119
p3722
aVFairmontHotels
p3723
aVtudorctygrl
p3724
aVjeffdurso
p3725
aVcreepadoo
p3726
aVBarbicanTurbo
p3727
aVBennis
p3728
aVBareface
p3729
aVECaley
p3730
aVkamal_turn8
p3731
aVIntilaq
p3732
aVllebeer
p3733
aV1britneyLove
p3734
aVbmforbes
p3735
aVZindella
p3736
aVegaray
p3737
aVtvosz
p3738
aVSanaTawileh
p3739
aVpayamd
p3740
aVgorgeousdubai
p3741
aVfiestajobs
p3742
aVNewsSpot
p3743
aVteachingsolar
p3744
aVhodanaghdy
p3745
aVJoan_Eliza
p3746
aVDerrickPereira
p3747
aV738482
p3748
aVpauloalexmiguel
p3749
aVmbockmbusmbock
p3750
aVchuckiem
p3751
aVGreenProsperity
p3752
aVbullseyeseeker
p3753
aVminixr
p3754
aVgurshinder
p3755
aVtomgara
p3756
aVCasas_Portal
p3757
aVMVMpartners
p3758
aVyaniv75
p3759
aVMoJoCMO
p3760
aVcem
p3761
aVgaryjames
p3762
aVStevenSolari
p3763
aVLizzpellet
p3764
aVEverybodySafe
p3765
aVfarrah77
p3766
aVCoolcreative
p3767
aVtechnoemedia
p3768
aVdanielho
p3769
aVspymasteragent
p3770
aVhotelsite
p3771
aVksalah1
p3772
aVrohaditerate
p3773
aVpeterbutcher
p3774
aVtova_s
p3775
aVcashflowteam
p3776
aVhappyches
p3777
aVericright
p3778
aVasianflushcure
p3779
aVstephencrooks
p3780
aVgghaiyang
p3781
aVshinerosegirl
p3782
aVhjqs
p3783
aVdubzrat
p3784
aVInShapeGirl
p3785
aVRyanMmHmm
p3786
aVsweetthang2244
p3787
aVprebynski
p3788
aVBobJohnson73
p3789
aVpreeps76
p3790
aVkittykatx3
p3791
aVHorsevitamin
p3792
aVbillMaintsuper
p3793
aVLocal2global
p3794
aVcraigzuber
p3795
aVseanmccolgan
p3796
aVRex7
p3797
aVDiyanaAlcheva
p3798
aVxox532
p3799
aVyousefghandour
p3800
aVtrocbazar
p3801
aVFruGulbrandsoy
p3802
aVTYBEES
p3803
aVmarkress
p3804
aVyoungberry_
p3805
aVSportsFaith
p3806
aVporn_for_free
p3807
aV38338549
p3808
aVOMAoG
p3809
aVkembabloodworth
p3810
aVonprobation
p3811
aVswahilination
p3812
aVNoraBurns
p3813
aVsusankuchinskas
p3814
aVCustomFirst
p3815
aVYODASPARADOX
p3816
aVrogerrecommends
p3817
aVzqmpy584
p3818
aVKarynServin
p3819
aVApie_CRM
p3820
aVtoddkashdan
p3821
aVCb5D2k
p3822
aVMrmMhd
p3823
aVSHEELAD
p3824
aVPhoenixdxb
p3825
aVKhalilAleker
p3826
aVtamersalama
p3827
aVthe_gadgetfairy
p3828
aVsupergroovy
p3829
aVsolveiglae
p3830
aVnikhilsoneja
p3831
aVJKissell08
p3832
aVDrBaher
p3833
aVsatyenchoksi
p3834
aVrainmaker08
p3835
aVSecondCherry
p3836
aVEmmaPinkyB
p3837
aVSammicandoit
p3838
aVblossomsofsin
p3839
aVebanoub5
p3840
aVGraphicsDubai
p3841
aVpeterwils
p3842
aVlasvegasjen
p3843
aVspryka
p3844
aVEarthHourUAE
p3845
aVrayluk
p3846
aVrazano
p3847
aVdmscott
p3848
aVacp_dxb
p3849
aVjohncaswell
p3850
aVLouPage
p3851
aValexve
p3852
aVhysharara
p3853
aVideaal340
p3854
aVmoxieu
p3855
aVemmanuelpappas
p3856
aVcbasia
p3857
aVcdboone
p3858
aVf2fseo
p3859
aVhMikail
p3860
aVmichaelvorel
p3861
aVboatlady13
p3862
aVwookim
p3863
aVMetalMaven
p3864
aVPeopleBrowsr
p3865
aVOgonnalloe
p3866
aVCamContact
p3867
aVmohandsyasser
p3868
aVSocialatDELL
p3869
aVfpenkala
p3870
aVhit_ch
p3871
aVJesseNewhart
p3872
aVFredericMartin
p3873
aVSexyFinanceGuru
p3874
aVWillHogoboom
p3875
aVadlybazaar
p3876
aVzedsq
p3877
aVchick4582
p3878
aVralphmercer
p3879
aVSkiSensei
p3880
aVa_sinclair
p3881
aVacmethunder
p3882
aVHowardBienstock
p3883
aVPamelaBeeney
p3884
aVallanschoenberg
p3885
aVcarollevesque
p3886
aVskanwar
p3887
aVCollinDouma
p3888
aVjessbennett
p3889
aVcdn
p3890
aVingridfuller
p3891
aVraffale
p3892
aVsa2010forum
p3893
aValwalser
p3894
aVneophiliac
p3895
aVshanegibson
p3896
aVSuicideGirls
p3897
aVCharlesGraham
p3898
aVdoylealbee
p3899
aVmayhemstudios
p3900
aVbnara75
p3901
aVchrisbechtel
p3902
aVSamPhilp
p3903
aVsgourley
p3904
aVtriggercorp
p3905
aVCatboy92
p3906
aVsvbmark
p3907
aVephran
p3908
aVElizGage
p3909
aVphazeromance
p3910
aVJayOatway
p3911
aVkenseto
p3912
aVkeithbohanna
p3913
aVNavidB
p3914
aVlauraleesparks
p3915
aVguzelr
p3916
aVdaveyank
p3917
aVBrandyourself
p3918
aVBradHoward
p3919
aVfortylovetv
p3920
aVspaceslife
p3921
aVTechClic
p3922
aVMoniqueBriand
p3923
aVdobror
p3924
aVDavidPylyp
p3925
aVTheBusyBrain
p3926
aVWhistlerCrawl
p3927
aViphonegirl
p3928
aVLinaFraij
p3929
aVDubaiLife
p3930
aVLeonardMabasa
p3931
aVdresnick
p3932
aVRichCurrie
p3933
aVSmartsoul
p3934
aVarauser
p3935
aVMayankBangia
p3936
aVJackBastide
p3937
aVdayvision
p3938
aVralphwebster
p3939
aVbhainah
p3940
aVjassim
p3941
aVJosapienza
p3942
aVliveworkexplore
p3943
aVmkhawaja
p3944
aVMWGrubb
p3945
aVBurjExecutive
p3946
aVFluevog
p3947
aVLithiumTree
p3948
aVtoddbursey
p3949
aVElanaCentor
p3950
aVLimelightPR_UK
p3951
aVCarinaSkye
p3952
aVhabibh
p3953
aVAdNationME
p3954
aVgerrywalter
p3955
aVJohn_Di_Lemme
p3956
aVkingsofleonfans
p3957
aVdcrblogs
p3958
aVmohamedparham
p3959
aVRenovationAuth
p3960
aVBoblet74
p3961
aVTweetCRM
p3962
aVAlexanderMcNabb
p3963
aVGDeadSunglasses
p3964
aVskinnylatte
p3965
aVpickupartists
p3966
aVsuzybauer
p3967
aVZiggybean1
p3968
aVridiculant
p3969
aVsecretdubai
p3970
aVarun4
p3971
aVMaiAbaza
p3972
aVCharlieCurve
p3973
aVEmiratesLitFest
p3974
aVkareneadie84
p3975
aVvidegram
p3976
aVlaradunston
p3977
aVcathgrn
p3978
aVJeremy_Sandy
p3979
aVZooberry
p3980
aVramblingbadger
p3981
aVCharlesTaggart
p3982
aVjadaaoun
p3983
aVktfonehome
p3984
aVSexyJessica84
p3985
aVCLConcepts
p3986
aVLadyinPublic
p3987
aVYYZnightlife
p3988
aVmaggie_yes
p3989
aVtvgeekarmy
p3990
aVHazarina
p3991
aVbojicas
p3992
aVcarlosaugusto
p3993
aVcyberdjy
p3994
aVantondeleon
p3995
aVAscendingART
p3996
aVroseloxley
p3997
aVfrostfire
p3998
aVArabCrunchDEMO
p3999
aVOABlanchard
p4000
aVKasiaGreco
p4001
aVbradaus
p4002
aVwcolbert
p4003
aVLizaQuincy
p4004
aVJessicaLevin
p4005
aVChiefApricot
p4006
aVcloud1_me
p4007
aVmeetango
p4008
aVsteveouch
p4009
aVjimmyrey
p4010
aVnicolesimon
p4011
aVRageGamer
p4012
aVUAE_Recruiter
p4013
aVandrewbutel
p4014
aVKaitlynColo
p4015
aVnullvariable
p4016
aVTrina_Willard
p4017
aVTheZenOfBlog
p4018
aVHLLittlejohn
p4019
aVpandoramusic
p4020
aVweblaunches
p4021
aVrobinbechtel
p4022
aVBriefCoaching
p4023
aVDonatiFamily
p4024
aValanlepo
p4025
aVheather_keroes
p4026
aVMrJamesTopham
p4027
aVThePawnbroker
p4028
aVZappos
p4029
aVstevejennings1
p4030
aVjrodgers
p4031
aVnn140
p4032
aVA_Parker
p4033
aVsarahfatigun
p4034
aVadriaanz
p4035
aVstitchmedia
p4036
aVHeyLauraFreed
p4037
aVmrjaredjames
p4038
aVjavier_bravo
p4039
aVBagel_Tech_News
p4040
aVImranAnwar
p4041
aVjobsworth
p4042
aVmattsinger7
p4043
aVryanstewart
p4044
aVCoachKevinCole
p4045
aVMike_Wesely
p4046
aVPeterMontague
p4047
aVmeickmeyer
p4048
aVbrianadrian
p4049
aVAlreadyRich
p4050
aVshawnrobinson
p4051
aVkilroyrogers
p4052
aVmgodwin79
p4053
aVSimon1709
p4054
aVEvaLovesMichael
p4055
aVperrybelcher
p4056
aVmegcbrown
p4057
aVRealtyByDesign
p4058
aVmark33
p4059
aVTreesInstead
p4060
aVjeanlucr
p4061
aVASimoes76
p4062
aVyoutonic
p4063
aVMoTeC_geek
p4064
aVRecruiterEarth
p4065
aVfnthawar
p4066
aVsave20
p4067
aVonetouchtweets
p4068
aVRickySantos
p4069
aVNASEtweets
p4070
aVBiOH4ALLtkp
p4071
aVDaivRawks
p4072
aVKyNamDoan
p4073
aVdawnmaloney
p4074
aVjasontryfon
p4075
aVFortuneGeorge
p4076
aVValentineDay
p4077
aVVBrown
p4078
aVR_E_A_C_T_I_V_E
p4079
aVGarmt
p4080
aVprofitgroove
p4081
aVEroticHeat
p4082
aVcoolpeoplecare
p4083
aVAJAG
p4084
aVobsalah
p4085
aVandersonrob
p4086
aVBubbletoe
p4087
aVSocialMedia411
p4088
aVLotay
p4089
aVk3n13
p4090
aVDEN2SEA
p4091
aVsarahsodyssey
p4092
aVartisanimpact
p4093
aVdelphineedde
p4094
aVATasteForTea
p4095
aVLesleyLambert
p4096
aVmichaeleckford
p4097
aVchrisdavidmills
p4098
aVdialm4accounts
p4099
aVLindyAnn
p4100
aVMetroDenverEDC
p4101
aVEd_Eusebio
p4102
aVleesareneehall
p4103
aVDannyBrown
p4104
aVmarshallexec
p4105
aVsteveprattca
p4106
aVunmarketing
p4107
aVIndiedoc
p4108
aVchrisjschmitt
p4109
aVarifgan
p4110
aVtweetreplies
p4111
aVSuButcher
p4112
aVsscullion
p4113
aVBobCanner
p4114
aVshannonseek
p4115
aVTxCloverAngel
p4116
aVlulula
p4117
aVMarkRomeroMusic
p4118
aVauthorjohnevans
p4119
aVdexin
p4120
aVSunrun
p4121
aVhervecuviliez
p4122
aVPapaCrawford
p4123
aVpcroy
p4124
aVstartupstudent
p4125
aVrainmakertom
p4126
aVBrand_Crowd
p4127
aVbradfallon
p4128
aViRecruitThat
p4129
aVCubeRules
p4130
aVPOPCORNKID
p4131
aVamy_yee
p4132
aVContractRecruit
p4133
aVcrowdSPRING
p4134
aVfrederickdubois
p4135
aVJibberJobber
p4136
aVDavidatHaley
p4137
aVhotelfoo
p4138
aVhotelemarketer
p4139
aVkartentaucher
p4140
aVbrendamurrow
p4141
aVhavanatimes
p4142
aVcnystedt
p4143
aVshufflegazine
p4144
aVMtmandj
p4145
aVPlantMiracle
p4146
aVLeyla_Hur
p4147
aVjlcommunication
p4148
aVnicolane
p4149
aVmercurygrove
p4150
aVLawrenceGilbert
p4151
aVLMMinaSeyahi
p4152
aVwkndmag
p4153
aVMalc0
p4154
aVdonapatrice
p4155
aVMcKQuarterly
p4156
aVhjortur
p4157
aVpgiblett
p4158
aVtheparallaxview
p4159
aVjoshlam
p4160
aVdubaizing
p4161
aVstillspoiled
p4162
aVfordrm
p4163
aVfastidiousbabe
p4164
aVgrader
p4165
aVcubex
p4166
aVYogiGeorge
p4167
aVBoydJones
p4168
aVkhaleejtimes
p4169
aVAhtzh
p4170
aVmsalagha
p4171
aVAndrew303
p4172
aVTheDigitalLife
p4173
aVsamarowais
p4174
aVlittleidea
p4175
aVCybersoc
p4176
aVdxbluey
p4177
aVfuentebeats
p4178
aVsanjive01
p4179
aVLisiSilveira
p4180
aVgloballeaders
p4181
aVMariGoldBars
p4182
aVstepping_stone
p4183
aVOutsideMyBrain
p4184
aVmarketingcloud
p4185
aVdavidalston
p4186
aVfourwings
p4187
aViPhone_Fan
p4188
aVMcKaysStore
p4189
aVworkstir
p4190
aVfelix_holzapfel
p4191
aVDaddyBird
p4192
aVbyosko
p4193
aVgregcollier
p4194
aVothella
p4195
aVnonprofitsos
p4196
aVikHAUNTCASTLES
p4197
aVbjkochendorfer
p4198
aVDxbTweetup
p4199
aVsagradafamili_a
p4200
aVblogyourjourney
p4201
aVupicks
p4202
aVGerald_Janauer
p4203
aVAlterNet
p4204
aVelefontinfo
p4205
aVreju
p4206
aVMichelleNemitz
p4207
aVKaylias
p4208
aVuihero
p4209
aVLLiu
p4210
aVdivine_dee
p4211
aVOReillyMedia
p4212
aVangelmcclinton
p4213
aVimprovingtheweb
p4214
aVvenkysridhar
p4215
aVdavidzinger
p4216
aVgaithline
p4217
aVcarmilevy
p4218
aVbhavishya
p4219
aVlunajade
p4220
aVfloatr
p4221
aVseodubai
p4222
aVdubaibiz
p4223
aVcathyy
p4224
aVmajidkhan59
p4225
aVkcclifford
p4226
aVTaya_ITAGroup
p4227
aVFREEJ_FOLKLORE
p4228
aVlebrun
p4229
aVBackType
p4230
aVAuto_A_Holic
p4231
aVvastplanet
p4232
aVSteven_Owlett
p4233
aVcamisabella
p4234
aVceoworld
p4235
aVjbarwriter
p4236
aVRoutersSwitches
p4237
aVBuMira
p4238
aVNadine_AM
p4239
aVakramassaf
p4240
aVAkoha
p4241
aVpetherick
p4242
aVdubaitweetup
p4243
aVzSafwan
p4244
aVloubegnel
p4245
aVArie_Ball
p4246
aVleeannmo
p4247
aVrobinpedrero
p4248
aVgerarddolan
p4249
aVaomedia
p4250
aVseemsArtless
p4251
aVjaleal
p4252
aVdrpants
p4253
aVbitpakkit
p4254
aVaprildunford
p4255
aVarotheram
p4256
aVShannonyelland
p4257
aVbillpoly
p4258
aVdanaoshiro
p4259
aVjacquimurphy
p4260
aVterryjsmith
p4261
aVjimmurphy
p4262
aVgo_nadz
p4263
aVLynnCrymble
p4264
aVsireland
p4265
aVfreshbooks
p4266
aVNickKalkounis
p4267
aVzunaid
p4268
aVRenroon
p4269
aVmorgancoudray
p4270
aVSeanMoffitt
p4271
aVTunglerocks
p4272
aVdamienstevens
p4273
aVpkitano
p4274
aVinfowise
p4275
aVmightysmith
p4276
aVcrunchbase
p4277
aValextohme
p4278
aVabhamalpani
p4279
aVspotonpr
p4280
aVPKGulati
p4281
aVosouthgate
p4282
aVdebbieweil
p4283
aVFragum
p4284
aVliberal_party
p4285
aVstartupnorth
p4286
aVdjit
p4287
aVsammywhaleshark
p4288
aVdanielabarbosa
p4289
aVfrederic_d
p4290
aVdanmcteague
p4291
aVBULLDOGDRUMMOND
p4292
aVDemoCampDubai
p4293
aVreuven_p
p4294
aVfuckapellow
p4295
aVAtaa
p4296
aVkenyatta
p4297
aVamichail
p4298
aVminimeme
p4299
aVesperanca
p4300
aVseedcamp
p4301
aVgsmbk
p4302
aVCarol_Ferndale
p4303
aVquikness
p4304
aVbenwalton
p4305
aVDan_Christensen
p4306
aVMMM
p4307
aVfapman
p4308
aVRuss_Morgs
p4309
aV4sec_memory
p4310
a.