(lp0
Vcaylentinc
p1
aVTheDataAgent
p2
aVAriaStarrBeauty
p3
aVRootzNininha
p4
aVTerriBauman
p5
aVSwiftCoding1
p6
aVkamruzzaman_pro
p7
aVjandjcloset
p8
aVrosieburbidge
p9
aVCTOs_land
p10
aVAudioKitPro
p11
aVOrientDB
p12
aVtimrooke1991
p13
aVmalkaves
p14
aVjrhuerta
p15
aVasiermarques
p16
aVxocas__
p17
aVgmolto
p18
aVmaybeoriol
p19
aVjavifdezsainz
p20
aVchozero
p21
aVNomii98
p22
aVdanielribes
p23
aVapoz
p24
aValozalv
p25
aVLydiaPFayal
p26
aVbjalili
p27
aVnatsteinmetz
p28
aVDanielPriestley
p29
aVfestivalityco
p30
aVWomen_in_B
p31
aVWeAreLikeMinds
p32
aVdaphne_hamilton
p33
aVcfidurauk
p34
aVrbhuhi
p35
aVPreptheproject
p36
aVtanalia
p37
aVcopaceticsoph
p38
aVChristinaParlay
p39
aVclockadviser
p40
aVmadewjoy
p41
aVTechPixies
p42
aVrobertslang
p43
aVStructur3d_Tech
p44
aVRedwoodCharlie
p45
aVchaffeet
p46
aVumarcela
p47
aVwendydevolder
p48
aVpa2uhnwi
p49
aVilyaporopudas
p50
aVasofianeves
p51
aVMeowwch
p52
aVFindingsApp
p53
aVJM_IBMMSPTeam
p54
aVsasjkia
p55
aVClemenceArist
p56
aVOrsolaDeMarco
p57
aVkhushbuhsheth
p58
aVLadyCyberRosie
p59
aVSB_EMPIRIC
p60
aVJacqui_Gibbons
p61
aVstoyanova
p62
aVmarywallace
p63
aVrobmccargow
p64
aVfernandoiacosta
p65
aVhouseofli
p66
aVW1Girl
p67
aVE2O_Bijoux
p68
aVCatherinMcQuaid
p69
aVnikihutchinson
p70
aVroisiproven
p71
aVbexinterrobang
p72
aVheylexi1
p73
aVWfundVC
p74
aVleamansog
p75
aVRadiusPoint
p76
aVStefRecruiter
p77
aVAfriSTEM
p78
aVmahadaoud
p79
aVmentorafrika
p80
aVNoel_la
p81
aVVShakthi
p82
aVGameforceGlobal
p83
aVmeredithtupper
p84
aVoluoluoxenfree
p85
aVkyliehavelock
p86
aVsuzannebowen
p87
aVsharonjstokes
p88
aVjeannieymullen
p89
aVFrancescaDean
p90
aVWomenWhoTech
p91
aVCIOWaterCooler
p92
aVMillsHill_Neil
p93
aVheadlinersupply
p94
aVEntreprePro
p95
aVtechstarsjohn
p96
aVPsycologyAndMe
p97
aViamstartacus
p98
aVspeirin
p99
aVSorryAsAService
p100
aVstartup_her
p101
aVJonahLupton
p102
aVCooeeVisual
p103
aVvisualographyco
p104
aVstrawbahrey_jam
p105
aVtedcooke
p106
aVHashamCh002
p107
aVplayhubmuc
p108
aVplanscal
p109
aVsaianushareddy1
p110
aVmoser1064
p111
aVAlbertOshea92
p112
aVpoldvee
p113
aVTechMgrWeekly
p114
aVangelreales
p115
aVJackMacSax
p116
aVEventbriteUK
p117
aVproductplat_23
p118
aVadam_sandford
p119
aVSurgeTheApp
p120
aVgspotmojo
p121
aVmartin_arissol
p122
aVgetPluggedToday
p123
aVViveiros81
p124
aVBourgougnonLuc
p125
aVAloisDomanegg
p126
aVhavingtime
p127
aVnieves2061
p128
aVKrisPlume
p129
aVjezemery
p130
aVInfoAutoconsumo
p131
aVPeritasCon
p132
aVjohnmurphy5835
p133
aVjavinpaul
p134
aVbaccito
p135
aVVangelis_Andr
p136
aVbill_tribble
p137
aVmaeverutten
p138
aVTobiFredrik
p139
aVaftercrossapp
p140
aVmwcorbett
p141
aVTechFoy
p142
aVPureSoulMusic
p143
aVoecampbell
p144
aVCodeGuardX
p145
aVMumsinTech
p146
aVthepytsband
p147
aVRyanBissett1
p148
aVMaximSavard
p149
aVSSRN
p150
aVDashTronic_com
p151
aVLouiseWelby
p152
aVLeilaNJt
p153
aVMarkScoRecruit
p154
aVSKellyCEO
p155
aVSean_PowerUK
p156
aVomaroma17835957
p157
aVDigBuzzing
p158
aVSpainStartupHub
p159
aVLCarvalhoSe
p160
aVangelacademe
p161
aVwhebdesign
p162
aVInformal_Bar
p163
aVgoaheadtaccom
p164
aVTheHopefulHT
p165
aVAnlituz
p166
aVRaineyDav
p167
aVtweetanor
p168
aVSamanthaRose83
p169
aVbitreverie
p170
aVanniejackson_uk
p171
aVEventslides
p172
aVanaluciard
p173
aVjennyhbren
p174
aVAntonioLulic
p175
aVAmandineFlachs
p176
aVMrkMcknz
p177
aVbaconchin
p178
aVAcornAspiration
p179
aVAirWatch
p180
aVbelerenle
p181
aVlittleboots
p182
aVAachris88
p183
aVfindafitpro
p184
aVThe_Pitch
p185
aVLalaiPiedad
p186
aVnicolecancode
p187
aVpascualin
p188
aVKailiKleemeier
p189
aVsimonekayemusic
p190
aVAntonyKithinj10
p191
aVdevPulseSlack
p192
aVlucienhoare
p193
aVa_covar
p194
aVtanja_crissic
p195
aVemilyatk
p196
aVstartupnewss
p197
aVFintechStartupW
p198
aVKidED_
p199
aVCowrieZhao
p200
aVnearlynicks
p201
aVburuggla
p202
aVMoreYogaLDN
p203
aVeamonncarey
p204
aVthebadmonkeydev
p205
aVMonkeyTestIt
p206
aVCanasRome
p207
aVVictoriaRedfern
p208
aVmergimeraci
p209
aVthingaweek
p210
aVwearebondstreet
p211
aVLibby_N24
p212
aVRoss_Good
p213
aVComeJUMPwithus
p214
aVcathywhite10
p215
aVAdamTheNagy
p216
aVsara_sgm
p217
aVthumyeemun
p218
aVOmlisUK
p219
aVGirlbosssociety
p220
aVamyjohnson_pff
p221
aVAnaRibeiroUK
p222
aVjenslapinski
p223
aVblanca_tp
p224
aVKathrynWright81
p225
aVnaomitimperley
p226
aVPotential_FFVC
p227
aVCastellanoeo
p228
aVEnt_Charlotte
p229
aVDaniCastellanoM
p230
aVInterchangeLDN
p231
aVlrntto
p232
aVMurrayNewlands
p233
aVAtomQAdotcom
p234
aVwinniethefool
p235
aV_tobycox
p236
aVAmardeepDhesi
p237
aVnnabilahussain
p238
aVwearelighthouse
p239
aVjulsica
p240
aVFflic
p241
aVtombielecki
p242
aVRaulHernandezL
p243
aVcloudamour
p244
aVretcop2010
p245
aVbarryweston1965
p246
aVzeenah_24
p247
aVlayerframe
p248
aVGabbiCahane
p249
aVArmada_Cloud
p250
aVdarrencoupland
p251
aVsk8_81
p252
aVhan_walker
p253
aVDirsoCzerski
p254
aVrule336jarule
p255
aVycnotyc
p256
aVHenryAppleby
p257
aVmialomo
p258
aVar_gooner
p259
aVcnicolaou
p260
aVVaelkyrieGaming
p261
aVBLR13
p262
aVNouriIsabella
p263
aVitsmarkchaffey
p264
aVKatricektb
p265
aVPinkiegkx
p266
aVSam_Piggott
p267
aVjordanfish
p268
aVSperoForCancer
p269
aVLDahg
p270
aVbackatchaclub
p271
aVmbirkegaard
p272
aVinflucontent
p273
aVrawmotionapp
p274
aVRainBirdAI
p275
aVQualityNinja
p276
aVtundeyus
p277
aVpauldh73
p278
aVJuLovesNewStuff
p279
aVhackajob_co
p280
aVrolloshaw
p281
aVUKSamH
p282
aVvillageorge
p283
aVJIsraelTurner
p284
aVdavidjswarren
p285
aVdanstuart
p286
aVMathilde_Leo
p287
aVangiegrossmann
p288
aVluixal
p289
aVm_meenaxi
p290
aVcliffordjj
p291
aVdhruvghulati
p292
aVSergio_RodAgu
p293
aVsquaredoffagain
p294
aVC_Elliott_
p295
aVmigmartri
p296
aVLikid0
p297
aVBoneMerchants
p298
aVEdSck
p299
aVsilvio_y
p300
aVroomrapp
p301
aVAndreiDavid
p302
aVGetBeekast
p303
aVMadeleineGBlyth
p304
aVAnja_Streicher
p305
aVlilachbullock
p306
aV3a3ad98e56a44e5
p307
aVsa_mous
p308
aVawesomeents
p309
aVjohn_dineen
p310
aVCarinaRead
p311
aVcindytudam
p312
aVAppyParking
p313
aVKeeranRavee
p314
aVDeekitapp
p315
aVkylotan
p316
aVclevercode
p317
aVHeyNomNom
p318
aVRDoutreJones
p319
aVIncuBusLondon
p320
aVRCreanga
p321
aVtifftpham
p322
aVrupertbaker
p323
aVantonioperic
p324
aVidomdavis
p325
aVmarklazar1
p326
aVallenecraft8272
p327
aVmartynd
p328
aVRichardWingard
p329
aVdalexbrown
p330
aVmitchtakei
p331
aVNeilP666
p332
aVambiefm
p333
aVSylv1_Montreuil
p334
aVSquarespaceHelp
p335
aVrishi_chowdhury
p336
aVmsrsan
p337
aVheadlineracts
p338
aVrodolfor
p339
aVwilkox79
p340
aVkraemerskattn
p341
aVlukaszkorecki
p342
aVbenjamta
p343
aVinthecompanyof
p344
aVspencerrwise
p345
aVGideonChain
p346
aVmartinmcgloin
p347
aVdadboduk1
p348
aVAroundThen
p349
aVStPapagianneas
p350
aVSharon_Herzog
p351
aVthisisamrisha
p352
aViamdankaufman
p353
aVEspreeDevora
p354
aVJamesMorganPhD
p355
aVtojulius
p356
aVeventsnorthern
p357
aVljcjug
p358
aVhackandfly
p359
aVritikadhamija
p360
aVCrowdTEvent
p361
aVDebbieGuisado
p362
aVrafa_aguado
p363
aVRecWorks
p364
aVBoltAcc
p365
aVjagbhat82
p366
aVlillianariver29
p367
aVprabhakarwe
p368
aVIMEX_Group
p369
aVtwschulz
p370
aVMTraffi
p371
aVMrDylanCollins
p372
aVtr0nical
p373
aVapireport
p374
aVsimonjenner
p375
aVSpotifyCares
p376
aVCanivellCarmen
p377
aVLouiseNornes
p378
aVEventTechLab
p379
aVkittykaraoke
p380
aVtso4karma
p381
aVJamieLearmonth
p382
aVKPutralampung
p383
aVBrettGreene
p384
aVjuanbrenes85
p385
aVmloenow
p386
aVitmanagersapp
p387
aVevarley
p388
aVDr_NeilA
p389
aVwadus
p390
aVyadieines
p391
aVAdamKinderJ123
p392
aVDonneGym
p393
aVtaliator
p394
aVhebe_tony
p395
aVBerkaUX
p396
aVIAmFledge
p397
aVBharathVantari
p398
aVrustygilimore51
p399
aVcarnero
p400
aVLondonCTOs
p401
aVdevopsdaysDerby
p402
aVWelcomeHomeCA
p403
aVemanuel81529299
p404
aVJltejadaJose
p405
aVdanielghilea
p406
aVsusieramsay
p407
aVCanopussss
p408
aVfrench152
p409
aVEwaMago
p410
aVcolourandco_de
p411
aVelfpavlik
p412
aVOrtega_Peola
p413
aVEMIRxxx82
p414
aVemergeination
p415
aVJuan_glezmarin
p416
aVMortimerSpinks
p417
aVkosuMobile
p418
aVMrAndrew
p419
aVthorley_jack
p420
aVjsendor
p421
aVcoderinheels
p422
aVEncinasDeOro
p423
aVCa11umanderson
p424
aVdeftone123
p425
aVStartDashUpsCo
p426
aV51c3bf0893e04a8
p427
aVBuildYourOwnMBA
p428
aVprogrammableweb
p429
aVKillerPandaCom
p430
aVthedjmonarchy
p431
aVendpointcon
p432
aVeezeStores
p433
aVhrishio
p434
aVvictorhenning
p435
aVJamesWoodMusic
p436
aVInShoreditch
p437
aVmszepien
p438
aVMrScottEddy
p439
aVmixomatosed
p440
aVjordinho111
p441
aVinothernews
p442
aVmurph_615
p443
aVsongproducers
p444
aVrobknight_
p445
aVBUS_Informatica
p446
aVdeepbane
p447
aVAPIrise
p448
aVanaRB
p449
aVheadlinerio
p450
aVCarmenCanivell
p451
aVincredibleh0lg
p452
aVYEyango
p453
aVBradleyBizOpp
p454
aVTheSuccessKing
p455
aVKristinaNaru
p456
aVjamesbull_ITM
p457
aVLetsTalkTelecom
p458
aVmjthoraval
p459
aVTigerLaMusic
p460
aVJessReeves1
p461
aVHydraCG
p462
aVapicommons
p463
aVrealflockwithme
p464
aVmamund
p465
aVmpetyx
p466
aVAPIDaysBerlin
p467
aVibagrak
p468
aVjoostfarla
p469
aVDDoosterlinck
p470
aVturicas
p471
aVapestov
p472
aVMarkusLanthaler
p473
aVvinniequinn
p474
aVRunscope
p475
aVAnnJipa
p476
aVkinlane
p477
aVcarocapi
p478
aVjames_gibbons
p479
aVemiliacerda195
p480
aVlvalverde
p481
aVtothelazercave
p482
aVcarlosml
p483
aVjosephshell
p484
aVCYvdB
p485
aVTwitterDev
p486
aVcole_josh1
p487
aVMazza_Mcleod
p488
aVK_TechRecruiter
p489
aVaral
p490
aVsoundfacts
p491
aVbandwagongigs
p492
aVhugomunro
p493
aVCaroKhalil
p494
aVSirgoofybootsyo
p495
aVEastLondonCakes
p496
aVbrokerfashion
p497
aVStevie_Hanover
p498
aVhabeggerLau
p499
aVmduk
p500
aVhiwearespiders
p501
aVEmmylouRahtz
p502
aVhazmanlabs
p503
aVSteve_KSR
p504
aVjrasell
p505
aVmy_leitmotiv
p506
aVYoga4Londoners
p507
aVmcgiant
p508
aVSawfari
p509
aVtesla_waves
p510
aVOpenResearchExe
p511
aVawesomekling
p512
aVtransageo
p513
aVj_simon
p514
aVNatanRondelli
p515
aVbenlund
p516
aVJoaoRBernardino
p517
aVTapasValley
p518
aVivan_molochko
p519
aVthomson_matt
p520
aVyeforriak
p521
aVforce11rescomm
p522
aVneuinfo
p523
aV_London_News
p524
aVscrambeley
p525
aVfridayclubyeah
p526
aVhollycassell
p527
aVchrismoffett
p528
aVSkinurin01
p529
aVpapperskaerlek
p530
aVelwatto
p531
aVhisnameismrlee
p532
aVtiagolnobre
p533
aVmblizo
p534
aVchriswbarr
p535
aVDigitalPanApp
p536
aV__tukah
p537
aVEnergyogaLondon
p538
aVpingcniradart
p539
aVBinaryTweedDeej
p540
aVp_laguna
p541
aVNoManNiRoB
p542
aVJamesAHammerton
p543
aVdevlup
p544
aVBBourgougnon
p545
aVglinmac
p546
aVvilartoni
p547
aVdr2lopez
p548
aVMendeleyApp
p549
aVsilouanwinter
p550
aValison_robb
p551
aVryanj_recruit
p552
aVjoyofapis
p553
aVRoundaboutIO
p554
aVswanpants
p555
aVjuanma2785
p556
aVRichard_KSHR
p557
aVFacilvision
p558
aVStew
p559
aVrubensfranco
p560
aVJamesStevens84
p561
aVkrrishbhatt
p562
aVDavidEvans66
p563
aVfhr
p564
aVmatchNhack
p565
aVDevTechUK
p566
aVTheJeffNeil
p567
aVchinorey4
p568
aVomphe
p569
aVbiochimia
p570
aVAttivaGroupLTd
p571
aV_chriskoerner
p572
aVJCanivell
p573
aVsimonandrew
p574
aVtheresamc
p575
aVcguerreroxD
p576
aVmamariin
p577
aVDANZSHLAG
p578
aVRafa_GZM
p579
aVCommsPond
p580
aVstefigiordano99
p581
aVMrsArandab
p582
aVKTFStTeam4
p583
aVJesusruizlagare
p584
aVRockitJobs
p585
aVDanielGarca11
p586
aVdarktears
p587
aVMry_gc
p588
aVBiketoBestival
p589
aVJorgeHolmbergBa
p590
aVFlizz_Argentina
p591
aVimaginaryroots
p592
aVmah_imt
p593
aVmichaelpullman
p594
aVfcogama
p595
aVchrisprooney
p596
aVsantiroes
p597
aVyrtott
p598
aVTheChefmang
p599
aVchatito0412
p600
aVBanana_Campus
p601
aValabarga
p602
aVtivi
p603
aVJamieONorth
p604
aVfiniteattention
p605
aVchancho_NCAC
p606
aVDigiTunePR
p607
aVjuanjodomenech
p608
aVMr_Gemii
p609
aVcapirizca
p610
aVSpotifyPlatform
p611
aVdesarrollanding
p612
aVphilgribbon
p613
aVsroblesnarbona
p614
aVRealFlowYoga
p615
aVvirako
p616
aVvoximate
p617
aVLondonsTweets
p618
aV_lrr_
p619
aVh_desgraciaismo
p620
aVSteve_Ridout
p621
aVmarcopk
p622
aVerpower
p623
aVNathanQMayberry
p624
aVmgrani
p625
aVjmezi
p626
aVocnb3
p627
aVLily_honeybee
p628
aVworkinstartups
p629
aVJohnorlok
p630
aVfedericoviola
p631
aVThelighterthief
p632
aVbuskersonbikes
p633
aVMAntonioRaya
p634
aVel_kan
p635
aVmcavaliere
p636
aVElsevierDev
p637
aVelllore
p638
aVchatreton
p639
aVDroideley
p640
aVtomboa
p641
aVSophieN16
p642
aVapiaryio
p643
aVSRSocialClub
p644
aVHeartBeatPort
p645
aVrobertalifonso
p646
aVLPOrchestra
p647
aVLCO_orchestra
p648
aVrpoonline
p649
aVlondonsymphony
p650
aVonlineawards
p651
aValiyamirza
p652
aVErnestoM5
p653
aVericswain
p654
aVz_rose
p655
aVHostingSevilla
p656
aVMiguelRuiz1976
p657
aVverin_andrea
p658
aVdankocruz
p659
aVchris_koerner
p660
aVcogpie
p661
aVTrioDancers
p662
aVjesperht
p663
aVjavimartinagar
p664
aVakms17
p665
aVpapa_cannolo
p666
aVSlniecko16
p667
aVnickrw
p668
aVinmacotta
p669
aVux_lab
p670
aVsevein
p671
aVparellada
p672
aVAssured_Recruit
p673
aVLukeMorton
p674
aVjmdiazangulo
p675
aVkasiagogolek
p676
aVkevbradwick
p677
aVpwander
p678
aVphalasz
p679
aVqualservcl
p680
aVdavidjguru
p681
aVdlionut1
p682
aVooohooohoooh
p683
aVmartin_eve
p684
aVmrgunn
p685
aVmicah_gideon
p686
aVjenn_melon
p687
aVlinuxhispano
p688
aV7DialsLondon
p689
aVmoellernights
p690
aVinvisiblecomma
p691
aVmayahhf
p692
aVsciencenotee
p693
aVelielmelon
p694
aVReaderMeter
p695
aVsparshgupta
p696
aVPaperoftheday
p697
aVjasonpriem
p698
aVLisztNut
p699
aVMyOpenArchive
p700
aVmepartoconmigo
p701
aVrafavargas
p702
aVsugus_etsii
p703
aValobbs
p704
aVinfo2follow
p705
aVCindyRubbens
p706
aVpedlagdur
p707
aVjainzen
p708
aVClareMaguire
p709
aVagenciacanivell
p710
aVSebastianArcq
p711
aVHaveFunDoGood
p712
aVFbGameOn
p713
aVcutestatusideas
p714
aVgfry
p715
aVsrdmn_
p716
aVcaptv_peru
p717
aVfdoblas
p718
aVMac_Grec
p719
aVJimmy_Bhatty
p720
aVrdmpage
p721
aVmendeley_com
p722
aVCristobalBlanco
p723
aVcmeniz
p724
aVPietroZuniga
p725
aVcolm
p726
aVDesireeSanest
p727
aVrobbiehudson
p728
aVIanMulvany
p729
aVsubcide
p730
aVonecircleclub
p731
aVValentino1124
p732
aVbi0xid
p733
aVrenantepadilla
p734
aVernesto_jimenez
p735
aVDavidPeredaAVL
p736
aVfuturehumanista
p737
aVben_bt
p738
aVFran
p739
aVpenyaskito
p740
aVValdTDibbe
p741
aVBuzzFollowers
p742
aVseewahcheng
p743
aVdvsotelo
p744
aVSpoonfed
p745
aVpaul_vd
p746
aVBrero
p747
aVevents_london
p748
aVc4rlos
p749
aVjuanjeojeda
p750
aVouthouseldn
p751
aVsafebuy
p752
aVAhure_SPA
p753
aVjmzurita
p754
aVsilverAJ
p755
aVinefable
p756
aVHelenaBingham
p757
aVLDN
p758
aVrvidal
p759
aVrochoa
p760
aVjulietrowley
p761
aVmaykyyue
p762
aVrey_poison
p763
aVranzwertig
p764
aVjasonHoyt
p765
aVbenromberg
p766
aVDanHarvey
p767
aVmichalboo
p768
aVmuz
p769
aVphobeo
p770
aValfonsobeta
p771
a.