(lp0
VToddAndMaryanne
p1
aVwikimatze
p2
aVwwahammy
p3
aVteknopol
p4
aVdavidstheodore
p5
aVVisionOdyssey
p6
aVLinksBridges
p7
aVallison88601
p8
aVSunamChoudhary
p9
aVBrittneyKelln
p10
aVwordpressbuzz1
p11
aVTechAnnouncer
p12
aVDrCSpencer
p13
aVtom_msdistuk
p14
aVTrumptonLibDems
p15
aVshoaibdhabbirsh
p16
aVc_wrighton
p17
aVdfisher34109
p18
aVFlexoGraphics1
p19
aViseris_andreas
p20
aVXeomarketing
p21
aVummidoldagehome
p22
aVFreelancing2016
p23
aVDp967076
p24
aVn_Clouds
p25
aVgelya_gordeeva
p26
aVrickmeister23
p27
aVcostasppc
p28
aVrachelbridge100
p29
aVDeanProchnow
p30
aVSLT_Law
p31
aVsivori4343
p32
aVhexmasteen
p33
aVWorkwithmari4
p34
aVApeTimeLondon
p35
aVOanaMarr
p36
aVnicholashill
p37
aVlillahusetcpd
p38
aVralespebbbull11
p39
aVhirefireio
p40
aVfront_porch_inc
p41
aVsalmank44631450
p42
aVrs_business
p43
aVMoralesmamma
p44
aVKnow_Tech
p45
aVAcePhotoVideo
p46
aVinnovateuk
p47
aVMobrillApps
p48
aVon_sizzle
p49
aVNetworkComputin
p50
aVSusanFogarty
p51
aV11_Health_Uk
p52
aVscottpstapleton
p53
aVradzima
p54
aVJohnDelhotal
p55
aVsamuel_clements
p56
aVhyntme
p57
aVWifiGuy502
p58
aVMikeLeibovitz
p59
aValfmckim
p60
aVWLANBook
p61
aVaclauge
p62
aVjoemceachern
p63
aVhenrygarner
p64
aVsellerbot
p65
aVHeyEddie
p66
aVjquery_rain
p67
aVJBurruz
p68
aVpnedro
p69
aV3azdouzizoucsc1
p70
aVItsCristina2
p71
aVJonathanMellor
p72
aVTODTUBE
p73
aVEricOkorafor
p74
aVembedUR
p75
aVlaurieswhit
p76
aVSlackHQ
p77
aVthebryandavis
p78
aVinterop
p79
aVICPP_Justin
p80
aV72_raza
p81
aVwifi_freak
p82
aVjoeri_Skyline
p83
aVWifiNigel
p84
aVMadameFlambe
p85
aVsarahwaters1951
p86
aVvoove
p87
aVcory580
p88
aVwifiblogdotcom
p89
aVCatAdam5
p90
aVninuxorg
p91
aVnemesisdesign
p92
aVopenWISP
p93
aVcleartosend
p94
aVhesnotarealboy
p95
aVwifinowevents
p96
aVJosephAtDell
p97
aVGPOTIERRANORTE
p98
aVViniciusLouro
p99
aVjusttimisfine
p100
aVNDP_Studio
p101
aVsystemITltd
p102
aVMarianGilea
p103
aVohdatsdada
p104
aVBeerMetropolis
p105
aViBwave
p106
aVapiaryhaus
p107
aVdavidkfry
p108
aVcuser0
p109
aVtyersalclub
p110
aVvictor__87315
p111
aVldemay
p112
aVVergesFrancois
p113
aVSmartLedger
p114
aVanthony4ngel
p115
aVwirednot
p116
aVtatosygoqif
p117
aV7signal
p118
aVpanjichi1
p119
aVDanielNBloom
p120
aVTheAlma_N1
p121
aVWDSiGroup
p122
aVthetinot
p123
aVLoriteRubn
p124
aVkeithyanthony
p125
aVCraigThinkBig
p126
aVThinkBigHub
p127
aVmaxrafuse
p128
aVMaverickLDN
p129
aVMagyarosiSz
p130
aVnikz
p131
aVCCCDB9
p132
aVearleenbrooks92
p133
aVsumanas23
p134
aVStevensGertrud1
p135
aVcoramorris65
p136
aVHeavenly_Drinks
p137
aVInspiredDriven
p138
aVOnthegreen5
p139
aVTheSteveMcg
p140
aVreadmeio
p141
aVndreamercer
p142
aVEbayPromoter1
p143
aVAntennaGuyAvi
p144
aVFort_Nelson
p145
aVHubbubEats
p146
aVAuvikNetworks
p147
aVRavenousCara
p148
aVagildea2
p149
aVThisisZone
p150
aVTheHouseOfRiot
p151
aVBotanicaLondon
p152
aVkivimartin
p153
aVCloudCoded
p154
aVusdingoboy
p155
aVelonsmitty
p156
aVdm2studios
p157
aVH_R_Irani
p158
aVengeniuseu
p159
aVPoorGuyRichGuy
p160
aVRafa_SCid
p161
aVWiFivaganza
p162
aVkiliasov
p163
aVTheCastle_Cambs
p164
aVgamejuker
p165
aVWiFiZach
p166
aVScalajob
p167
aVUzilitySteve
p168
aVHealthRewards1
p169
aVbrucalloryn
p170
aVmattodo
p171
aVGeojorj1
p172
aVRestaurantAlDar
p173
aVKGWcafes
p174
aVEUPioneers
p175
aVgoguatego
p176
aVo_pridmore
p177
aVgrowWireless
p178
aVHectorArreola18
p179
aV2015_Maria_
p180
aVsatjosef1
p181
aVsnorkel42
p182
aVJohnHornell
p183
aVXeniaB2B
p184
aVnyvyliqurit
p185
aVRigolEMC
p186
aVmildlygaypigeon
p187
aVbrightfireview
p188
aVdseannixon
p189
aVbhmcnaughton
p190
aVedtparkes
p191
aVNodeIT
p192
aVNogginBI
p193
aVFIcontent
p194
aVkoqoo
p195
aVbobhubbard26
p196
aVkult_is
p197
aVsvenlatham
p198
aVpereiragoncalo
p199
aVwormpurple
p200
aVgotHighOps
p201
aVAndrewKelsall
p202
aVLmmckk
p203
aVBDExmouth
p204
aVgetmedigital
p205
aVElNivel_London
p206
aVashishmohta
p207
aVBE_Suzy
p208
aVflorinxtin
p209
aVrealDavidLeon
p210
aV_benroberts
p211
aVFocusHubLondon
p212
aVSuruIonut
p213
aVVuongN
p214
aVJOHNARCECO
p215
aVcatadam90
p216
aVBRaymond78ATL
p217
aVaethosting
p218
aV19Margaritta
p219
aVeoinodonnell
p220
aVtabbers1975
p221
aVsmarterwifi
p222
aVLMCTechnologies
p223
aVCucumberTony
p224
aVbufflunchapp
p225
aVSW_Hackney
p226
aVBD_Hackney
p227
aVtik_va
p228
aVgallerycamp
p229
aVrainbowheart25
p230
aVforce36ltd
p231
aVBuzzGuerra
p232
aVwhosjacklondon
p233
aVBluecubeTelecom
p234
aVHaringeyPigs
p235
aVHaweli_Ealing
p236
aVtwistedpairtech
p237
aVAkagi201
p238
aVSquare1Products
p239
aVfriendlyhuman
p240
aVdanviala
p241
aVmeals_hoxton
p242
aVLamancha
p243
aVmamaya_commerce
p244
aVtpunwin
p245
aValireindeer
p246
aVJaymzie007
p247
aVrichietynan
p248
aVxejibegeqere
p249
aVhubwestminster
p250
aVWorkshopEC1
p251
aVPropertyMargene
p252
aVDanielsLondon
p253
aVmiltonhouse99
p254
aVnomadbarber
p255
aVElviaChantel
p256
aVsandrakapfhamme
p257
aVnetw0rking
p258
aVninetyeightbar
p259
aVConferenceTee
p260
aVrandellguilbeau
p261
aVGrazeAtReynolds
p262
aVsuki5141
p263
aVLithiumHardware
p264
aVdotwebster
p265
aVUnionZak
p266
aVQuesada
p267
aVOtisMccoolrtl
p268
aV4sqSupport
p269
aVopcitpeople
p270
aVeteaparty
p271
aVCybrsalon
p272
aVHighSpeedHarris
p273
aVemma_hallam
p274
aVtoridews
p275
aVTraceyW97075717
p276
aVundercurrent_gb
p277
aVstatusio
p278
aVCraigRDJones
p279
aVDVMWHS
p280
aVrottenwifi
p281
aVSimonHague
p282
aVDeKoning
p283
aVhealthyseason
p284
aVFriargatestudio
p285
aVmjones40
p286
aVderbysilkmill
p287
aVCabraKathy
p288
aVWIREDcafebar
p289
aVWolver1ne
p290
aVPickle60
p291
aVTDRsalon
p292
aVpsoares
p293
aVSparkDerby
p294
aVMotherMash
p295
aVPassionMktg
p296
aVHammamOrient
p297
aVTPG_group
p298
aVHydrophilous
p299
aVcatrinrutland
p300
aVOrangutanClyde
p301
aVderbymuseums
p302
aVCoffeeBarker
p303
aVRuthCoppin
p304
aVcelapools
p305
aVTOL4SMEs
p306
aVAuction_UK
p307
aVKhadijaDcc
p308
aVAgileDevs
p309
aVResonantNetwork
p310
aVTechCityNotts
p311
aVIndustrialWP
p312
aVDolabanyGroup
p313
aVCotsArtCoffee
p314
aVGeekeasyDerby
p315
aVmarcellatool
p316
aVJustTweets
p317
aVStGeorgesNG4
p318
aVtwit_twooh
p319
aVDigitalDerby
p320
aVtenderpun
p321
aVMadeiShoreditch
p322
aVunimpossible1
p323
aVARBELEY
p324
aV_Kazalia
p325
aVcharmedlife1111
p326
aVuk_insight
p327
aVprotogadget
p328
aVdaxrelocation
p329
aVpetalcoworking
p330
aVwilsonvoight
p331
aVtech_viewer_UK
p332
aVTimicoUK
p333
aVphilcampbell
p334
aVfilchambers
p335
aVhowtovision
p336
aVtechwave3
p337
aVElisaDodd1
p338
aVGhislaineCardon
p339
aVg__j
p340
aVmentmorestudios
p341
aVadvcartridge
p342
aVStyleTails
p343
aVkarllangston
p344
aVandrea996
p345
aVRackspace
p346
aVOakeleyArms
p347
aVStatusPageIO
p348
aVWIPMESSENGER
p349
aVMartinFaulks
p350
aVTechnoQuestions
p351
aVrich_succ
p352
aVMPantenna
p353
aVAmazonVideoUK
p354
aVSurfDerby
p355
aVsiker78
p356
aVHMCNow
p357
aVTravelBlurbCom
p358
aVBismarckGomes
p359
aVtetrisventures
p360
aVDirector_MKCDC
p361
aVpagekeeperserv
p362
aVDoc_sc
p363
aVPowwownow_Help
p364
aVPowwownow
p365
aVOctocall
p366
aVevalanee
p367
aVYRSTORE
p368
aVITforAccounting
p369
aVCapital_Cycles
p370
aVFundAmerica
p371
aVPurpleWiFi
p372
aVStackSearch
p373
aVweeklydesign
p374
aVBeta_Startups
p375
aVQuinnster77
p376
aVSocialListeners
p377
aVCodetenLtd
p378
aVDogstarBrixton
p379
aVkrisbarnes
p380
aVquitelikethat
p381
aVanahparker
p382
aVGryphonTrans
p383
aVDonMascall
p384
aVsausagewifi
p385
aVSWofCrouchEnd
p386
aVtomieee
p387
aVInvuNetworks
p388
aVAllanDuffy1
p389
aVInShoreditch
p390
aVPAtech2015
p391
aVLighting_Group
p392
aVideabloke
p393
aVSuperBoxInc
p394
aVpretty_dirty_uk
p395
aVThirtySuns
p396
aVSupportDesks
p397
aVBrunoCoffees
p398
aVliveableplaces
p399
aVADiffClothMcr
p400
aVBitesize_food
p401
aVwolfree
p402
aVMrAlmondo
p403
aVMSPConsultants
p404
aVStuartGray
p405
aVTechnologyJam1
p406
aVArtofFilm21
p407
aVLogicBSL
p408
aVRhodriDaviesRDM
p409
aVBullPeterboro
p410
aVLawrence_Jones
p411
aVLiamMagicKid
p412
aVEquine_MH
p413
aVPetsAnimalsWeb
p414
aVbrett7three
p415
aVhertzSprung286
p416
aVReplaceWithCats
p417
aVRoydwin
p418
aVSethmiesters
p419
aVleejacobson_
p420
aVbillytucker100
p421
aVfywus
p422
aVThemerproject
p423
aVUntouchDesigns
p424
aV100TopGeschenke
p425
aVDisasterTechLab
p426
aVbassmastergdc
p427
aVbitesocialmedia
p428
aVfattylovesfoods
p429
aVVersionEye
p430
aVBenitsesArches
p431
aVMJSIMES
p432
aV_mcurry
p433
aVappcraver
p434
aVchefnickshipp
p435
aV_SamuelWebster
p436
aVHectorAGuerrero
p437
aVNick_Tuma
p438
aVYouBeingSocial
p439
aVPremierSols
p440
aVREVOSECCUS
p441
aVdrjoyce_knudsen
p442
aVExpanhouse
p443
aVWeCanGoDutchCom
p444
aVKimReynolds
p445
aVsocmediabureau
p446
aVbrandschutztip
p447
aVAdvertising_FL
p448
aVrealfreebets
p449
aVtagbakonline
p450
aVgartenspritzeka
p451
aVRechtslupe
p452
aVDigitide
p453
aVnclzz
p454
aVJewerstein
p455
aVPubsAdvisory
p456
aVj10802
p457
aVFeuerking
p458
aVJillBucySkin
p459
aVJennifer_Worick
p460
aVPizzaPill
p461
aVTheWazZupCafe
p462
aVIvisBoDavis
p463
aVPalmerReport
p464
aVMGothilda
p465
aVchyams
p466
aVFirebrandTalent
p467
aVjenandkerry
p468
aVjopkins
p469
aV0rangecoffee
p470
aVHWU1192
p471
aVPolitics_PR
p472
aVLoungeRoomJam
p473
aVvinsannuti
p474
aVEbay_Trade
p475
aVcloudtweeters
p476
aVlukestratton
p477
aVDiscriminationB
p478
aVgoStormpath
p479
aVFelixComms
p480
aVrobsaenz
p481
aVl5423b2t28
p482
aVr1y16zgf2x2
p483
aVlabolege1972
p484
aVpavuur0
p485
aVhollplayer
p486
aVstartualbiggban
p487
aVgtvw4g4jw63
p488
aVgt04205420p7
p489
aVfeyeleanor
p490
aVscv3675605
p491
aVn66cl2r
p492
aVgsn24746
p493
aVgsq5yt2cq
p494
aVs411wg0t34
p495
aVw67x00c25ty
p496
aVvuneca0207
p497
aVgtqj6471
p498
aVk61htc1
p499
aVqfs35r153kw
p500
aVscatculpzuge198
p501
aVkmore
p502
aVdnaScotland
p503
aVCMRTODAY
p504
aVIPhilVeryGood
p505
aVHotel43
p506
aVClayFranklin
p507
aVGREENBOAR
p508
aVEastLancsPie
p509
aVBrightCloudLtd
p510
aV_AndyGrover
p511
aVRubyHangout
p512
aVSaran_Pownall
p513
aVvmbusinesshelp
p514
aVChroniclesofems
p515
aVOldRedCow
p516
aVstuartberry1
p517
aVRoRInnovators
p518
aVSafeDNS
p519
aVonlygeek
p520
aVTheWatershed
p521
aVdazines
p522
aVhelensfizzbombs
p523
aVZebra_Dave
p524
aVptom98
p525
aVwhatworkswhere
p526
aVjellythegoat
p527
aVbebobbed
p528
aVcoderbits
p529
aVProjectChillOut
p530
aVMassifSoleil
p531
aVMyrta_Garuti
p532
aVjarosawwinarski
p533
aVEdinburghFoody
p534
aVg5tech
p535
aVmontpeliers_bar
p536
aVBrewLabCoffee
p537
aVMingJong
p538
aVairbrake
p539
aVHowToPlant
p540
aVFellowsBrewery
p541
aVarmy2business
p542
aVhanssmellinckx
p543
aVAlliSheKnows
p544
aVNo1WiFiGuy
p545
aVtelestreamcloud
p546
aVLondonOps
p547
aVindiespottv
p548
aVTinaCook
p549
aVchristopherpace
p550
aVLinkBuildRocket
p551
aVEE
p552
aVPenthouse90
p553
aVmikeutt
p554
aVUKNewsTweets687
p555
aVpeadargormley
p556
aVfahoul_VFX
p557
aVnutshellmovies
p558
aVtobymiles14
p559
aVSynergyRecharge
p560
aVMTB0122
p561
aViPostReal_
p562
aVbasilrusso
p563
aVMN4allfamilies
p564
aVhappyltd
p565
aValamb47
p566
aVjrridinger
p567
aVspreecommerce
p568
aVarshyatechnews
p569
aVCoffeeVW
p570
aVJimDoane
p571
aVrobertsione
p572
aVTFB_Lovers
p573
aVPhalando
p574
aVjoechiari
p575
aVErlene_Matar
p576
aVCDescargarG
p577
aVdavegriffiths
p578
aVIvette_Coakley
p579
aVMozatros
p580
aVElementsEnergyS
p581
aVmeteorN556
p582
aVsdiraStore
p583
aVHarveyVoices
p584
aVChinaBizWatch
p585
aVTheGeorgeWallng
p586
aVAndrewMargarit
p587
aVInboundSales
p588
aVdaniel_kane
p589
aVVoxLabSova
p590
aVJonathanTorke
p591
aVMantisGroup
p592
aVAquilaComputers
p593
aVCoffeeBeanUK
p594
aVYimiDM
p595
aVAurlexTees
p596
aVaimeepilz
p597
aVjkcallas
p598
aVfeeddoonoticias
p599
aVWorthingOps
p600
aVteenfashion516
p601
aVConnectBethesda
p602
aVKoomba303
p603
aVMeccaBingo
p604
aVChrististitches
p605
aVPedreiras10
p606
aVStepanZinin
p607
aVSalesforceSMB
p608
aVdean1978
p609
aVMarylandTrust
p610
aVMerakiSimon
p611
aVLeatherTulsa
p612
aVJeff_Freelancer
p613
aVTerrone
p614
aVcorey_smith
p615
aVp2vsystems
p616
aVgdavassi
p617
aVMitchMeyerson
p618
aVNonprofster
p619
aVDietNews1
p620
aVts200_bot
p621
aVOcius_Jonathan
p622
aVLouToms
p623
aVtangledskein200
p624
aVBertbolt
p625
aVDaezarkian
p626
aVOklahomaBiker
p627
aVCMYates
p628
aVaaronsylvan
p629
aVvmbusiness
p630
aVGreatOrmondSt
p631
aVl_bannerman
p632
aVVaranasiChefs
p633
aVbusinessuk
p634
aVwdunlap
p635
aVFRAEofficial
p636
aVscottleadership
p637
aVsocialmediamstr
p638
aVnickallam
p639
aVs_hunt_author
p640
aVwifiprofs
p641
aVGratefulEnergy
p642
aVFerrariSeattle
p643
aVFerPrimal
p644
aVZoppCall
p645
aVlukewoolfson
p646
aVeskimon
p647
aVStGylesJewels
p648
aVtomaquetpuntcat
p649
aVhouseessentials
p650
aVmikecurley1
p651
aVJarvisCHTodd
p652
aVS_Cardon
p653
aVlorikkhan7
p654
aVrachael0299
p655
aVliammackay
p656
aVFamilyLives
p657
aVLondonrsOnBikes
p658
aVAffinityWiFi
p659
aVSilkwinders
p660
aVFaulknerPub
p661
aVUtahVoters
p662
aVBenjaminHenry8
p663
aValexmike32512
p664
aVsamfinding
p665
aVmeraki_george
p666
aVSexyJaneee
p667
aVpdxruby
p668
aVs6520643
p669
aVablackspotblog
p670
aVArnoldBennelong
p671
aVSODMGForLife
p672
aVDGurl_Ent
p673
aVConspiracyCase
p674
aVJonahLupton
p675
aVprosperyourmind
p676
aVJoeFrankieiii
p677
aVFailCorp
p678
aVAdrienChao
p679
aVnegroak
p680
aVRod1871
p681
aVO_Shindanyi
p682
aVMindfullyChange
p683
aVrubyhipster
p684
aVLA_CA_4Bachmann
p685
aVRidwan_Gunawan7
p686
aVsoamwork
p687
aVCoffeaSouth
p688
aVThe_Rochell_Bru
p689
aVChandrk
p690
aVWouldURatherQA
p691
aVDealsInThisMall
p692
aVAugustinepy06
p693
aVGlobalNetworker
p694
aVDevansBmobile
p695
aVtheMAKLab
p696
aVMPATTEN1
p697
aVIolaqln
p698
aVScott_Spectrum
p699
aVDarladsj54
p700
aVLaChinaDiOro
p701
aVlittleli1985
p702
aVlukasz8715
p703
aVRecoPromotions
p704
aVcamillinadolce
p705
aVguscannon
p706
aVSocial_Surf
p707
aVpatk1646
p708
aVKataleena9563
p709
aVLifeCanBeDffrnt
p710
aVMatthewRClark
p711
aVDreamSponsoring
p712
aVben_bleet
p713
aVTheWhiskeyBros
p714
aVBillysm246
p715
aVcatchthirty3
p716
aVpncstudiosnyc
p717
aVghack_
p718
aVRockinJoeThePro
p719
aVSabinavdH
p720
aVTweetBanksy
p721
aVChoose_Cloud
p722
aVwildwasser
p723
aVMahibul
p724
aVTeam_LDPR
p725
aVKrystinaMonet
p726
aVStudentTraffic
p727
aVTortaMusic
p728
aVStartAnEasyBiz
p729
aVguidoderosa
p730
aVART_Hopper
p731
aVRicciulliArnald
p732
aViamauston
p733
aVashleenrrmarron
p734
aVMaxwell4911
p735
aViwantsky
p736
aVKimmyJayy
p737
aVLaurel_DeWitt
p738
aVNeilAGrippa7
p739
aVDiscountFun
p740
aVVisitOutlet
p741
aVEliteEscort
p742
aVchjen82
p743
aVculture4friends
p744
aVCarmeljus
p745
aVTameikapx2
p746
aVtaylorproduct
p747
aVARCollectibles
p748
aVLaunt_Clothing
p749
aVHerbathek
p750
aVBMWofWilmington
p751
aVTechTweets2011
p752
aVMancFlowerGirl
p753
aVFlashMobYogaMtl
p754
aVserviceteamltd
p755
aVMiracleMovie
p756
aVSEOASS
p757
aVjeanclaudesouza
p758
aVMr_ImamSujono
p759
aVmoscowpastime
p760
aVRoyal_Blunts
p761
aVClaraSteventh
p762
aVJoshHarcus
p763
aVDaylenhale92
p764
aVSallyEbert1
p765
aValphaandoxygen
p766
aVESPemporium
p767
aVdiqisorb
p768
aVbestpricepro
p769
aVAweArch
p770
aVOver_theHump
p771
aVlearnmlmwithme
p772
aVExecDS
p773
aVclaytonsikasote
p774
aVPolitcWatchdog
p775
aVAvantiObiWAN
p776
aVDhackerscom
p777
aVFurnitureStopUk
p778
aVbaconscotch
p779
aVFilmFundsSTORY
p780
aVSoFabLife
p781
aVKharmaWifi
p782
aVPipChip
p783
aVChrisBurpee
p784
aVmaliakhanam
p785
aVbastinxav
p786
aV50Plushealths
p787
aVP3Rpublicity
p788
aVnicholasfane
p789
aVsmminspiration
p790
aVstanscates
p791
aVwendibarchie
p792
aVTonyAustinMusic
p793
aVKGzone13
p794
aVazziehqpmathews
p795
aVnanavkbreen
p796
aVvanokhermes
p797
aVfilmfundsapp
p798
aVPaulHamon
p799
aVAsadBaigz
p800
aVLBinterni
p801
aVbybusiness
p802
aVharinjp
p803
aVGanymedBerlin
p804
aVEFGpr
p805
aVmycycleshop
p806
aVWA_DIGITAL_NW
p807
aVeldeforma
p808
aVECOAquaParadies
p809
aVbizgroupbuy_UK
p810
aVTramshedEvent
p811
aVJJConway777
p812
aVNancyAHB
p813
aVfitnesshouston
p814
aVamzy_wamzy90
p815
aVdutch_lous
p816
aVourOceanside
p817
aVFollowBackSong
p818
aVJus_Rhyme
p819
aVQueensHeadNass
p820
aVMovietoMovement
p821
aVInvestmentBCcom
p822
aVwatchcausality
p823
aVKorleonKOJ
p824
aVCancerDaily_
p825
aVFilmFundsINDIE
p826
aVKeithVes
p827
aVkrazychimp
p828
aVMobiBaltimore
p829
aVBazecamp
p830
aVWise_Monkey
p831
aVskyjefans
p832
aVTheRealDjWork
p833
aVcreatesocialbuz
p834
aVInlineGlobal
p835
aVecomplatforms
p836
aVTheGreyhoundIps
p837
aVCOREBIZSTYLE
p838
aVNadia_Nabilita
p839
aVSpeakSolar
p840
aVhealthyforlife9
p841
aVgrosocial
p842
aVBritshKylie
p843
aVLondonsEscorts
p844
aVrigel7
p845
aVfrappenatic
p846
aVWebBrandSD
p847
aVDEJUANLUCIAN
p848
aVFotoVantage
p849
aVSGChurches
p850
aVjwm222
p851
aVscottmckain
p852
aVBulahfep
p853
aVsdSocialplex
p854
aVnjautoauction
p855
aVLou4fun
p856
aVyen_bertha
p857
aVmatthewbelcher
p858
aVODONTOSALUD
p859
aVVeggieMagazine
p860
aVvistaSpx
p861
aVMarkMawsonPhoto
p862
aVStormchasersWeb
p863
aVGiversRule
p864
aVGoGoGoFern
p865
aVTech0Promoter
p866
aVbel_world
p867
aVJason_Selk
p868
aVdot_online_
p869
aVBucky_Johnson49
p870
aVTripsetc
p871
aVMichRockx
p872
aVgeorgegosingz
p873
aVpptout
p874
aVLufitshana900
p875
aVStylePage
p876
aV1PaidSurvey
p877
aVisexton
p878
aVBromwall
p879
aVje_tech
p880
aVSEOnewsru
p881
aVLabestia3
p882
aVDailyCrowd
p883
aVzleeps_co_uk
p884
aVTopBeerTV
p885
aVFCI_Group
p886
aVBudtoBoss
p887
aVKeyChangeInst
p888
aVNachoDelSancho
p889
aVsahimafroj
p890
aVGaragePegboards
p891
aVInspireTheMind
p892
aVemmanently
p893
aViExpressFeeling
p894
aViCEOstatus
p895
aVEarthsPromo
p896
aVStockDot
p897
aVMyLivePlace
p898
aVFreedom2Train
p899
aVnowhere_8Qs
p900
aVRealWLBalance
p901
aVgossip_gurlie
p902
aVbwdpromotions
p903
aVExtremePCsLLC
p904
aVTweetsAnything_
p905
aVstarsmaven
p906
aVBusinessinhere
p907
aVNetWeave
p908
aVMrCollaborative
p909
aVwhygold9999
p910
aV_chrisharper
p911
aVAmpelmannDining
p912
aVsfphotoschool
p913
aVRennGuerr
p914
aV372channel
p915
aVvpseo
p916
aVspikycactus
p917
aVTheLoanC0uk
p918
aVVoteSystem
p919
aVBe_Digital_Web_
p920
aVshohel_wd
p921
aVOttoGoldblatt
p922
aVPacificGroveInn
p923
aVKhamneithang_
p924
aVprogimmaginario
p925
aVpieroletizia
p926
aVduncanbrodie
p927
aVInsuranceOption
p928
aVBoim7
p929
aVBarefootWayne
p930
aVDigiGreenwich
p931
aVonlineandstayin
p932
aVTripFab
p933
aVbrainshareco
p934
aVmlind327
p935
aVSelesti
p936
aVsemicast
p937
aViloveapple9
p938
aVHouseOfShorts
p939
aVEuanACameron
p940
aV4byoung
p941
aVPhotoConcierge
p942
aVProfitMaxPlus
p943
aVTriStarMedia39
p944
aVMiXiaoJian
p945
aVbopoziks
p946
aVCandle_Addict
p947
aVDawarAShah
p948
aVlael_cook
p949
aVPeriscopeTribe
p950
aVRx_100
p951
aVrbcunliffe
p952
aVanniehall59
p953
aVsynaty0214
p954
aVthScreamingFace
p955
aVChrisSmithBlog
p956
aVknowlesjeff
p957
aVForewarnedFilms
p958
aVBSRWSolutions
p959
aVkogauk
p960
aVHaibike_UK
p961
aVBreast_Trials
p962
aVDallasWorx
p963
aV_ThaiTourGuide
p964
aVDK_Coble
p965
aVMFKtoday
p966
aVBecomeALeader
p967
aVLesism
p968
aVFlorakimKimya
p969
aVdewittpacker
p970
aVJETAR9
p971
aVMonikaPayson
p972
aVYourThaiGuide
p973
aVJonny_Boyle
p974
aVswalesderek
p975
aVsocialshadow
p976
aVIngazgt
p977
aVdatingsitesxo
p978
aVjoerazz
p979
aVChristianTopics
p980
aVNovOps
p981
aVMyCancerTrial
p982
aVSOLOTheSeries
p983
aVwwwCompanyPlace
p984
aVwilliamjanse
p985
aVintermac
p986
aVThtShortGuy
p987
aV3OClockClubLV
p988
aVrobinbloor
p989
aVBillyCEOCat
p990
aVLifeWithMaryJ
p991
aVOtcAllStars
p992
aVKCupsCheap
p993
aVSmooth_Ass_Silk
p994
aVjmadeira
p995
aVKarynne_Summars
p996
aVJLequin
p997
aVteaobsessor
p998
aVmdloxed
p999
aVbenpatt
p1000
aVClinicalTrialMD
p1001
aVSurvivalFoodCan
p1002
aVBertaItaliano60
p1003
aVpankajdasseo
p1004
aVwinwebtech
p1005
aVOzellsez
p1006
aVKenyattabjn
p1007
aVLynnaihr
p1008
aVpramitjnathan
p1009
aVBlogging_David
p1010
aVFixedOpsGenius
p1011
aVGuanZheng1
p1012
aVDOTTrader
p1013
aVtomproost
p1014
aVLetShine1
p1015
aVDebbrakqo
p1016
aV00H1Y
p1017
aVItyBity_co
p1018
aVWRFWebsite
p1019
aVJennyfferrr
p1020
aVlynkindy
p1021
aVtheKAdude
p1022
aVCaptain_Ned
p1023
aVgalabeauty
p1024
aVarisnbw
p1025
aVMisDeeNerdyPerv
p1026
aVWireLack
p1027
aVNancrx
p1028
aVShelagmc
p1029
aVsolomoIT
p1030
aVHI_Solutions
p1031
aVletusdirect
p1032
aVNickierwhyp
p1033
aVJacinta52
p1034
aV11for10
p1035
aVthesilvagroup
p1036
aVChristyWilly
p1037
aVdebtfreeguy
p1038
aVKayceefqi
p1039
aVlvnaildiva
p1040
aVshadmanseo
p1041
aVliuruoyingai
p1042
aVGinaCaranoMMA
p1043
aVgivefreshwater
p1044
aVNJA_Web
p1045
aVTheTrackWonder
p1046
aVTyeshaiblvg
p1047
aVKnowMust
p1048
aVChrisLagoCL
p1049
aVJeneePrickitt
p1050
aVRussellNordick
p1051
aVJeffGreen20
p1052
aVhemantkusharma
p1053
aVsenthilnathanpl
p1054
aVseosujit
p1055
aVtalklocal
p1056
aVVirendraSEO
p1057
aVDarlingSookie
p1058
aVPourVotreBiz
p1059
aVYarkoTRed
p1060
aVDerekDunnOC
p1061
aVRobhtys
p1062
aVVolunteerAgain
p1063
aVSusanBoylesCat
p1064
aVdrjeffspeaks
p1065
aVOperationFollow
p1066
aVCaiQing1
p1067
aVFocalpriceDeals
p1068
aVNickoPaul
p1069
aVLamarGadgets642
p1070
aVVirendraSMO
p1071
aVDrJeffersnBoggs
p1072
aVEconBill
p1073
aVJuanaToed
p1074
aVIngermol
p1075
aVMariaBerter
p1076
aVtodaysphonenews
p1077
aVStyriaEventscom
p1078
aVKarenAdamedes
p1079
aViPhoneiPadFans
p1080
aVnutshell_music
p1081
aVLillyAudrey
p1082
aVviviendracon
p1083
aVandrewmcdonough
p1084
aVCreativejoiner
p1085
aVseo4salesforce
p1086
aVgesielrios
p1087
aVtheleftyperez
p1088
aVguy_loveslife
p1089
aVbuildthebuzz
p1090
aVaedphoto
p1091
aVfiverroogigs
p1092
aVKourtneyCooks
p1093
aVpatjohn23
p1094
aVBenjaminMGreen
p1095
aVjointventurer
p1096
aVmintcoininvest
p1097
aVSEOForAll1
p1098
aVsoulofcuisines
p1099
aVmichaelspeer
p1100
aVgideonrubin
p1101
aVroblkenyon
p1102
aVTericac009
p1103
aVRudyFDF
p1104
aVsicamp
p1105
aVnewcouponnet
p1106
aVCastletonPeak
p1107
aVAHelpco
p1108
aVmattssonuk
p1109
aVTriStarMedia31
p1110
aVfanofitcubs
p1111
aVdailydeal_mb
p1112
aVfanofitwrigley
p1113
aVfanofitchicago
p1114
aVtheintelligiser
p1115
aVTechnog33kblog
p1116
aVwrottenapple
p1117
aVDumbassShits
p1118
aVMyWrigleyville
p1119
aVSpitORtwit
p1120
aVfarquinnrecipes
p1121
aVBotanaGrow
p1122
aVhot_sauces
p1123
aVIngridElfver
p1124
aVmnk2551
p1125
aVRajappanRpt
p1126
aVkuli
p1127
aVtigho
p1128
aVNaturalAlgarve
p1129
aVAppManimal
p1130
aVPierceVargas
p1131
aVsasarcola
p1132
aVTennielnkms
p1133
aVFootball_Speak
p1134
aVJacobWallker
p1135
aVFergusonsFrame
p1136
aVHildegardefygwb
p1137
aVchris_harriss
p1138
aVShanekaGagnon
p1139
aVFazeisFamous
p1140
aVweb_gallery
p1141
aVJJListing
p1142
aVAntonioKingz
p1143
aVGazette_Edtior
p1144
aVPleasureEllis
p1145
aVThe7PillarsBook
p1146
aVX5ADM
p1147
aVWedjatours
p1148
aVdisswebsites
p1149
aVOCMediaWorks
p1150
aVreadymadedes
p1151
aVIBMSmartCamp
p1152
aVroper2121live
p1153
aVadendeals
p1154
aVKindleManiaTime
p1155
aVxbox360_video
p1156
aVOceanBeachSurf
p1157
aVLorivnaqg
p1158
aVSmartGardener1
p1159
aVLloydsPharmacy
p1160
aVndedde
p1161
aVErikFunfar
p1162
aVChristianGAdams
p1163
aVmyrxearth
p1164
aVDealterra
p1165
aVHomeWorkTeam
p1166
aVthinkgeek
p1167
aVHawaiiTechS
p1168
aVTheWemmi
p1169
aVDealluck
p1170
aVMarialiberati
p1171
aVMellyShow
p1172
aVJDsSalsa
p1173
aViTheNightDriver
p1174
aVMichelgegua
p1175
aVgodfatherfaruk
p1176
aVglassbeams
p1177
aVcacheups
p1178
aV7x7news
p1179
aVAnnaGainsboro
p1180
aVDMickelsonLife
p1181
aVsutorr
p1182
aVCouponMapLA
p1183
aVyourhappyfaces
p1184
aVBestFoodRetweet
p1185
aVMahaloCooking
p1186
aVUzziM7
p1187
aVSly_Meerkat
p1188
aVvCardExchange
p1189
aVWorldPRForum
p1190
aVSocialCirclePR
p1191
aVirtonhall
p1192
aVHelmutThien
p1193
aVSavvyMummys
p1194
aVmonhosteurfr
p1195
aVhilftcom
p1196
aVleilaoclub
p1197
aVbitrebels
p1198
aVUK_Marketer
p1199
aVhypnae
p1200
aVAngeliaKilliany
p1201
aVilike1991
p1202
aVMinervity
p1203
aVvibhavrikhi
p1204
aVdugar_anju12
p1205
aVpunterstockpick
p1206
aVGoldStarclean
p1207
aVsocialfans
p1208
aVstockz_102
p1209
aVShortNews_Top
p1210
aVxstex
p1211
aVEasyPeezySocMed
p1212
aVrapidtimesocial
p1213
aV24k
p1214
aVCouponMap
p1215
aVMauraiy47
p1216
aVGeorgia_Amar
p1217
aVbisirk
p1218
aVCaldwell_George
p1219
aVVenusxinxk
p1220
aVgibbsxiza
p1221
aVmoderntechno
p1222
aVMarcelloViscott
p1223
aVsallygossip
p1224
aVjwmade555
p1225
aVOurLocalLibrary
p1226
aVFloyRomaniszyn6
p1227
aVnotifyneal
p1228
aVgillyHDT
p1229
aVsimonashley
p1230
aVhappyhenry
p1231
aVlydiafcurtis
p1232
aVrejoy08
p1233
aVKevinKirren
p1234
aViotaillustrate
p1235
aVSinisms
p1236
aVFluffys_
p1237
aVDyerLetha770
p1238
aVsnackandmunch
p1239
aVgrandmaspantry
p1240
aVRaibergoh
p1241
aVreinikainen
p1242
aVbenunsworth
p1243
aVlee_renton
p1244
aVLilianBarton
p1245
aVCircusCity
p1246
aVCreativeCoop
p1247
aVspeedycows
p1248
aVchrisbrowntv
p1249
aVnatashaselskaya
p1250
aVlizzieruthnolan
p1251
aVSianeP
p1252
aVwuchi1
p1253
aVhowgetmoney
p1254
aVmelfindlater
p1255
aVFusionDigitalve
p1256
aVFrumpyFrank
p1257
aVspamexperiment
p1258
aViastaff
p1259
aVtomruttle
p1260
aVrebecca_600
p1261
aVleotong
p1262
aValbmfm
p1263
aVpearce_
p1264
aVedandmargie
p1265
aVSoniaChilders51
p1266
aVStartUpDonut
p1267
aVdoblab
p1268
aVCaroleKennedy27
p1269
aVLaSecondedApres
p1270
aVadycoles
p1271
aVBernardDahl
p1272
aVTheKingsFund
p1273
aVLizzieBishop
p1274
aVed_wallace
p1275
aVmhoegh
p1276
aVKevindoylejones
p1277
aVKREMNorge
p1278
aVSponsume
p1279
aVCassieRush
p1280
aVSting_Nation
p1281
aVGoBrunoAir
p1282
aValanb
p1283
aVLivelypixel
p1284
aVTheknowlegdebas
p1285
aVSimplCo
p1286
aVAvantiObi_WAN
p1287
aVflexiguru
p1288
aVHelloKihote
p1289
aVworldfoodandb
p1290
aVBlogger_Inf
p1291
aVsalimismcom
p1292
aVsumaya
p1293
aVBizGuyTV
p1294
aVthegeekgroup
p1295
aVdananderson
p1296
aVrjlind
p1297
aVbeezo411
p1298
aVHayleyChi
p1299
aVsheigh
p1300
aVOnlinesteve
p1301
aVstottc
p1302
aVRacingNewsCo
p1303
aVgooglebuster
p1304
aVHurghada_Dreams
p1305
aVstevefmitchell
p1306
aVJackRoman
p1307
aVBookParisHotel
p1308
aVramblingimpulse
p1309
aVPSstaff
p1310
aVScottiedag
p1311
aVtictaktech
p1312
aVShaneDWalters
p1313
aVShirtbox_Com
p1314
aVlastbabyboomer
p1315
aVdmarketing_tips
p1316
aVBreakingNews000
p1317
aVbakespace
p1318
aVI_Work_FromHome
p1319
aVproblogservice
p1320
aVSpiritofPurpose
p1321
aVLexi444
p1322
aVHTML5_updt
p1323
aVPictureBlogs
p1324
aVlidia617
p1325
aVjoseia
p1326
aVFood4Longevity
p1327
aVRemyRadio
p1328
aVsteve_squires
p1329
aVFinishingEffect
p1330
aVmelissamade
p1331
aVTheManRuleBook
p1332
aVBrat13
p1333
aVHollywoodGiants
p1334
aVProfessionalOne
p1335
aVdesigner_digest
p1336
aVlostmotion
p1337
aVFatJewishGirl
p1338
aVlevelwing
p1339
aVturnyourpoweron
p1340
aVdgeorge
p1341
aVmissychoco
p1342
aVHuntSeeLLC
p1343
aVjess_daydreams
p1344
aVwindows7texpert
p1345
aVrecovengineer
p1346
aVDebraWEllis
p1347
aVminimed78
p1348
aVErickPardus
p1349
aVsamcamps
p1350
aVStanLeeComicCon
p1351
aVtwitfollowbak
p1352
aVearnenginenet
p1353
aVAde1965
p1354
aVpalmspringsguru
p1355
aVRick_Billings
p1356
aVGhostlightmusic
p1357
aVourhotstockpick
p1358
aVlouloubontemps
p1359
aVefeent
p1360
aVthepointofsale
p1361
aVlittle_monique
p1362
aVthehorsesmouth
p1363
aVjustswaggerful
p1364
aVcreativehat
p1365
aVchadlhymas
p1366
aVdannychappo
p1367
aVAngelicaAdonis
p1368
aVAndreSammy9692
p1369
aVskstanfield
p1370
aVThirdViewFirm
p1371
aVSMOBangalore
p1372
aVHome_info
p1373
aVSandMCafe
p1374
aVHalloweenTime3
p1375
aViHomeConnect
p1376
aVymidoing_this
p1377
aVclickfire
p1378
aVLucileReysset
p1379
aVsteveenjoyslife
p1380
aVjamiebarren
p1381
aVjanemedia
p1382
aVKevinEikenberry
p1383
aVPandaHouseFan
p1384
aV1122syed
p1385
aVhiddenspycam
p1386
aVScottStraub
p1387
aVBestPowerNet
p1388
aVallcontractors
p1389
aVRodandBens
p1390
aVrrrhys
p1391
aVGiftBasketsShop
p1392
aVLaureenraft
p1393
aVFoxRevivedPub
p1394
aVEmilysHere
p1395
aVJamtexts
p1396
aVflickwit
p1397
aVFontjunky
p1398
aVNewsArch
p1399
aVbusiness_strtgy
p1400
aVpapaknows
p1401
aVdaughterswisdom
p1402
aVmazatlanlife
p1403
aVmymoneybizz
p1404
aVPennystockmover
p1405
aVExtramp
p1406
aVTheCultOfGenius
p1407
aVDaveDTC
p1408
aVcoffee_services
p1409
aVIFRSUpdate
p1410
aVDailySexToys
p1411
aVPrimalMuscle
p1412
aV_Filatov_
p1413
aVPaverlayer
p1414
aVpodoomda
p1415
aVBeershebaHorses
p1416
aVMSCVIP
p1417
aVneoco
p1418
aVSiteAmplifier
p1419
aVChrystal0949
p1420
aVyour_localworld
p1421
aVjmad444
p1422
aVtheThomasHardy
p1423
aVSara_Faber
p1424
aVgounce
p1425
aVThe_OCUK
p1426
aVMarkedeoMarket
p1427
aVoleahouse
p1428
aVnevidmusic
p1429
aVUkraini
p1430
aVNotesBuyers
p1431
aVblogwitme
p1432
aVtheoxter
p1433
aVProVegasGambler
p1434
aVIMBLESSEDTOBLES
p1435
aVgsuazo
p1436
aVdtjensen
p1437
aVRemyGabriel
p1438
aVRayzDesignz
p1439
aVBABYFAITHmisato
p1440
aVsnuggsy
p1441
aVGuideToInspire
p1442
aVthehealthaddict
p1443
aVbullseyestox
p1444
aVawesomeprinting
p1445
aVRespondcom
p1446
aVmhjallan
p1447
aVartontile
p1448
aVCheapStuff4you
p1449
aVRogerEdwards7
p1450
aVjensensalpha
p1451
aVspot2day
p1452
aVHealthFinances
p1453
aVGoCloud
p1454
aVjane_lf
p1455
aVBrandy_Middaugh
p1456
aVSocPartnership
p1457
aVchandanabhi007
p1458
aVkennethsea
p1459
aVstevescott1
p1460
aVfaulknerhoole
p1461
aVThMusicProjects
p1462
aVjemhas
p1463
aVDailyDealBroker
p1464
aVdabarlow
p1465
aVWerner_Weihs
p1466
aVAjinkyaForYou
p1467
aVmartinwelch
p1468
aVS_Rippetoe
p1469
aVethangz
p1470
aV33Pros
p1471
aVmpwh
p1472
aVthepartyshoppe
p1473
aVi4cCampaign
p1474
aVjameskramone
p1475
aVsocialmfortunes
p1476
aVIAmCountryGravy
p1477
aVEventsNSpeakers
p1478
aVManuel_Ibarra
p1479
aVClydeFossum
p1480
aVSQUAREFOLD
p1481
aVkarileeo
p1482
aVbedlamsportsOK
p1483
aVTheMontereyCo
p1484
aVAllieDuster7138
p1485
aVwildmooroak
p1486
aVDrDennisCummins
p1487
aVTaoMannaDon
p1488
aVdanielbdc
p1489
aVAngel35Fans
p1490
aVCairnEmmerson
p1491
aVoptimized_revnu
p1492
aVAccountantNY
p1493
aVomalkin
p1494
aVjkloren
p1495
aVAndreaMcCracken
p1496
aVImAHotMom
p1497
aVKarenDatahan
p1498
aVTheAPosition
p1499
aVNonapeptide
p1500
aVDiggDave
p1501
aVFrank_Barnett
p1502
aVprashant9sd
p1503
aVdayplusadollar
p1504
aV360BrandDigital
p1505
aVtheBonnieGayle
p1506
aVHideSeekMedia
p1507
aV1KeithDay
p1508
aVmlmweb5484
p1509
aVaquarium_kaufen
p1510
aVad_rian
p1511
aVSexIsMagazine
p1512
aVBidAskPressure
p1513
aVmereskiosk
p1514
aVrawnatureboy
p1515
aVCouponsNSavings
p1516
aVpatq
p1517
aVWendyEFactor
p1518
aVTracyZRewey
p1519
aVallthecooksden
p1520
aVckool66
p1521
aVjulieannross
p1522
aVBQTweets
p1523
aVIRhody
p1524
aVZacharyEdwardsC
p1525
aVBlackMarketLife
p1526
aVPamMktgNut
p1527
aVDonCooper
p1528
aVwishnie
p1529
aVeconbusspeaker
p1530
aVPrinceAJ
p1531
aVmobiusmedia
p1532
aVomeglex
p1533
aVDanielJawahar
p1534
aVSocialStreaming
p1535
aVHollywoodDub
p1536
aVRebecca757
p1537
aVcharliek01
p1538
aVAdoreAbhi
p1539
aVStartupChron
p1540
aVEranEyal
p1541
aVlbnmn
p1542
aVGolfSigma
p1543
aVFiota
p1544
aVPlanoGingerMan
p1545
aVbillingtonart
p1546
aVMarketingApes
p1547
aVsms_xyz
p1548
aVallrez_com
p1549
aVsunshinzup
p1550
aVJamesJodal
p1551
aVmmkateb
p1552
aVcrazygolfgame
p1553
aVAcupunctureSlim
p1554
aVAmandaMercero
p1555
aVScottWilliams
p1556
aViReduceFatFast
p1557
aVRay_Marketing
p1558
aVcheaptenerife53
p1559
aVLuminosityGlobe
p1560
aVonlinepro
p1561
aVpmsilverbug
p1562
aVkeyforex
p1563
aVTaxLienTraining
p1564
aVBizMarketingPro
p1565
aVtenerifefly
p1566
aVtenerifetenerif
p1567
aVsilverinvest
p1568
aVCollinDouma
p1569
aVhomelessholiday
p1570
aVFXStefan
p1571
aVHotHYIPs
p1572
aVstortwtr
p1573
aVCloudHosts
p1574
aVStudio_Dn
p1575
aVrawvolution
p1576
aVtedybabes
p1577
aVLitopia
p1578
aVKarlDetkenProDJ
p1579
aVSalventrexSales
p1580
aVLindahlLucas
p1581
aVkasthomas
p1582
aVMrAsk
p1583
aVTechFrog
p1584
aVdigital_0
p1585
aVMattMickiewicz
p1586
aVfit_and_fun
p1587
aVhopsnschooled
p1588
aVTheCoachingInn
p1589
aVDimensionTechno
p1590
aVplayflurty
p1591
aVceofellowship
p1592
aVRobMammone
p1593
aVruckuswireless
p1594
aVrevtrev
p1595
aVthinkplanetary
p1596
aVKeyStageTwo
p1597
aVSMManagerLondon
p1598
aVVAMBOA
p1599
aVSocialMediaRate
p1600
aVJennieDoesLife
p1601
aVJNCMobileMedia
p1602
aVvicfarron
p1603
aVCallAnytimeBBA
p1604
aVMxRealtyExecs
p1605
aVbarrycunningham
p1606
aVtinawinslow
p1607
aVjoesyverson
p1608
aVFN_Marktbericht
p1609
aVStockGemFinders
p1610
aVekaffee
p1611
aVPlanBHomeBuyers
p1612
aVEzyFits
p1613
aVFernGullyFriend
p1614
aVclayedwardspr
p1615
aVGeraldGigerl
p1616
aVmulticarinsure1
p1617
aVmike2977
p1618
aVCarolineMueller
p1619
aVRonEdmondson
p1620
aVnewswoord
p1621
aVMegaAdvertsUK
p1622
aVlodginginmt
p1623
aVHeartSafeUSA
p1624
aVnubiansensation
p1625
aVdgupta5150
p1626
aVSecondsFromWork
p1627
aVkarenddelacruz
p1628
aVMozellaHagood
p1629
aVJeaneanGendron
p1630
aVverticalbrain
p1631
aVatdigit
p1632
aVnikhil_parekh
p1633
aVSpikeLiveMusic
p1634
aVMichaelSabbeth
p1635
aVLFLAVERDI
p1636
aVgarrenjohn
p1637
aVmikewittenstein
p1638
aVrleseberg
p1639
aVKrisiMelRealtor
p1640
aVCecilia_Chapman
p1641
aVCatholicSpirit
p1642
aVoursocialtimes
p1643
aVDennisMee
p1644
aVnicoleperri
p1645
aVgoldandsilver99
p1646
aVStage_House
p1647
aVactionforplanet
p1648
aVparamoreUK
p1649
aVmycamilles
p1650
aVandy_emptylemon
p1651
aVSMOsocialmedia
p1652
aVMonkeyThink
p1653
aVskateraction
p1654
aVdropship_direct
p1655
aV1_Motivation_
p1656
aVmancavesupplyco
p1657
aVzprosper
p1658
aVLinkedInQueen
p1659
aVdisidenteonfire
p1660
aVcamom50
p1661
aVwifijedi
p1662
aVTootingFoodFest
p1663
aVAmaanya1985
p1664
aVpulmonarydrug
p1665
aVneilpatel
p1666
aVefectotequila
p1667
aVLUBS_co
p1668
aVcreateyourspace
p1669
aVWritingSpirit
p1670
aVBTWifi
p1671
aVkallistaobte6
p1672
aVAngellaRaisian
p1673
aVKingdomWayYEG
p1674
aVRubyBlueSpirits
p1675
aVanitaforbish
p1676
aVvtbtool
p1677
aVnatrol
p1678
aVGeraldRehlander
p1679
aVkazu_kyouya
p1680
aVIansCraft
p1681
aVhiltonhh
p1682
aVplumbingguru1
p1683
aVzsarianna7b4e
p1684
aVDanielJankovic
p1685
aVkylehudson
p1686
aVniccy4513
p1687
aVJazzedLady
p1688
aVWebIndians
p1689
aVmamagena
p1690
aVpaulvharris
p1691
aVsquizcards
p1692
aVstonelitetables
p1693
aVOhLifeVibes
p1694
aVtopskinindia
p1695
aVTommylove222
p1696
aVJohnESaeger
p1697
aVgroundworksfit
p1698
aVflywithsid
p1699
aVfemefashions
p1700
aVTopOneSEO
p1701
aVfamousplumber
p1702
aVBrocadenakamegu
p1703
aVYesmoretraffic
p1704
aVcockzenofficial
p1705
aVnabilakter
p1706
aVjackie_chan999
p1707
aVSanMarcoCoffee
p1708
aVNetnauta4All
p1709
aVfairluck_es
p1710
aVRestRowOrlando
p1711
aVMCLifeRocks
p1712
aVGoldenWords2011
p1713
aVtenerifelife
p1714
aVGoCoffeeGo
p1715
aVnansen
p1716
aVtreypennington
p1717
aVdollars5
p1718
aVvaleriasmurphy
p1719
aVConsiderZambia
p1720
aVNanoPlanet
p1721
aVSteveDexterCA
p1722
aVMarriottMPLS
p1723
aVMarcDeCaria
p1724
aVjcmegaphone
p1725
aVSaulStroud
p1726
aVmomorella
p1727
aVUndergroundEast
p1728
aVchamelibd
p1729
aVshikhabd
p1730
aVFredCuellar
p1731
aVoncewasengland
p1732
aVProfitParrot
p1733
aVfreelancelogo
p1734
aVtime2caboodle
p1735
aVjaycbee
p1736
aVelizlaprade
p1737
aVPENELOPEBARRY56
p1738
aVCAROLINEBOWMAN6
p1739
aVMySOdotCom
p1740
aVCarterMcGill
p1741
aVnorthteapower
p1742
aVroy0
p1743
aVBilleBaty
p1744
aVjonnyblacksmith
p1745
aVkevindixon64
p1746
aVNicoWiekenberg
p1747
aVUnsungStyle
p1748
aVhaitanrachman
p1749
aVTROUBLEatETSY
p1750
aVPreetybd
p1751
aVRestore_Credit
p1752
aVSuzanHartBEST
p1753
aVBestNewsDotCom
p1754
aVandynathan
p1755
aVOlivierVasquez
p1756
aVBaurechtstipps
p1757
aVsmallbiztip
p1758
aVAmericanVaporCo
p1759
aVswaii_fresh
p1760
aVgeoffmathesonst
p1761
aVshawnrobinson
p1762
aVDigitalPivot
p1763
aVActionChick
p1764
aVwewazity
p1765
aVGLaraLopez
p1766
aVlolololol98
p1767
aVsuccesswalls
p1768
aVungalexy
p1769
aVMySkinovations
p1770
aVforexlinxie
p1771
aVmarsadvice
p1772
aVGaryHill20
p1773
aVMikient
p1774
aVchadlatvaaho
p1775
aVTHEATREIQ
p1776
aVrhpritchard
p1777
aVTheBestNewsApp
p1778
aVMusicCarnia
p1779
aVBloggingStar
p1780
aVnetwrk_waves
p1781
aVDwsmegagroup
p1782
aVjaytoddmartin
p1783
aVRealShawnMartin
p1784
aVunreal_income
p1785
aVEmptyLemonJobs
p1786
aVAcroseas
p1787
aVuseyourlocal
p1788
aVSotoThailand
p1789
aVehomebuilding
p1790
aVhealth_memo
p1791
aVshoemakerstudio
p1792
aVNortherngenie
p1793
aVWifiISP
p1794
aVtedcoine
p1795
aVLissarankin
p1796
aVpantyOpanties
p1797
aVQuotesInternet
p1798
aVLarryDevine
p1799
aVSnowbirdFlorida
p1800
aVlorenpmatthews
p1801
aVPIevents
p1802
aVpaulevanstweet
p1803
aVraygill1
p1804
aVzoemyers
p1805
aVMexRealEstate1
p1806
aVJORDANEVANE
p1807
aVBalubab
p1808
aVJim_Barrows
p1809
aVMissTirio
p1810
aVBayswater23
p1811
aVcornyman
p1812
aVlittleindians3
p1813
aVMEDITEZVOUS
p1814
aVJasonFalls
p1815
aVBridgetAyers
p1816
aVGLOBINSTRNETW
p1817
aVtskyring
p1818
aVnielsvanmidden
p1819
aVxtence
p1820
aVjobyinc
p1821
aVbrendynews
p1822
aVescalaca
p1823
aVrei_educators
p1824
aVhalogentv
p1825
aVWallStWhisperer
p1826
aVBallySocial27
p1827
aVRichLoPresti
p1828
aVtweetwyse
p1829
aVcamila_biebs
p1830
aVlizstrauss
p1831
aVcuriouskoi
p1832
aVHerbertHeadK
p1833
aVbigmorro
p1834
aVPLATEFORM
p1835
aVSoCiOnIkS
p1836
aVEntireWebDesign
p1837
aVjulescavelli
p1838
aVandreajohnsonNB
p1839
aVfreeDnames
p1840
aVdjdavidvera
p1841
aV_everlove_
p1842
aVangelabarnesd
p1843
aVDrVogelmann
p1844
aVFoodCraftLabels
p1845
aVwingroupinc
p1846
aVderobertgreen
p1847
aVgbrdaher
p1848
aVshelancers
p1849
aVresourcemedia
p1850
aVcreativemsh
p1851
aVwatjay
p1852
aV07cloudy
p1853
aVSeniorBiz
p1854
aVfidipidirocks
p1855
aVtheimagedoesall
p1856
aVDelenaShhRK
p1857
aVbulmerscider
p1858
aVpibecowboy
p1859
aVpapakigr
p1860
aVDsgnWrks
p1861
aVdbdattwt
p1862
aVweb_macho
p1863
aVchelsy_rendon
p1864
aVpuffybsd
p1865
aVizeuz
p1866
aVbbbadger
p1867
aVmrbillyman12
p1868
aVdeuhlig
p1869
aVLemonTreeHotel
p1870
aVNateHolland
p1871
aVSmlCapTrdr
p1872
aVmattbrister
p1873
aVMicroddot
p1874
aVBig3Muscle
p1875
aVclevertononline
p1876
aVminaljaydevdave
p1877
aVJKWleadership
p1878
aVandreamorettowg
p1879
aVprintcountry
p1880
aVAskKim
p1881
aVsecureserver1
p1882
aVTooNiceStocks
p1883
aVJMorrison2103
p1884
aVyourhealthgurus
p1885
aVBethany_Wright
p1886
aVOTCMAGIC
p1887
aVtwit_solutions
p1888
aVbolidir
p1889
aVthewordfromwlst
p1890
aVKatiTJure
p1891
aVJeremySpiller
p1892
aVthesalmanahsan
p1893
aVperf_testing
p1894
aVrei_educator
p1895
aVv8no
p1896
aVJeanetteJoy
p1897
aVcreativesoftint
p1898
aVwhiskishop
p1899
aVlongevityinc
p1900
aVrajeevkistoo
p1901
aVjonathanfost
p1902
aVbscables
p1903
aVasmithblog
p1904
aVhumetom
p1905
aVEstoniatraffic
p1906
aVkylesoo
p1907
aVsamedayoffer
p1908
aVthepubclubbiz
p1909
aVpubsupermarket
p1910
aVGypsys_Horse
p1911
aVThomasKish
p1912
aVTedNguyen
p1913
aVwisestepindia
p1914
aVGilchrist_LLP
p1915
aVtherealfriggles
p1916
aVOracleForPres
p1917
aVidreamdigital
p1918
aVNetworkingFool
p1919
aVTruckspector
p1920
aVsamjamez
p1921
aVBlackLogicGear
p1922
aVdjg100
p1923
aVCreditCheckHelp
p1924
aVArnoldBaxter
p1925
aV2boardgames
p1926
aVTheMuttonPub
p1927
aVJazDem
p1928
aVsimonmcc
p1929
aVathoughtleader
p1930
aVbrazilianbiki
p1931
aVPixelistes
p1932
aVDoctorJeffrey
p1933
aVMyTitleCompany
p1934
aVjeanetteokwu
p1935
aVLangdaleHotel
p1936
aViLoveBagsok
p1937
aVWickedGeorgina
p1938
aVStoryofMyLife
p1939
aVImmuneChick
p1940
aVHeyMielle
p1941
aVSTUPENDCUS
p1942
aVflorizelmedia
p1943
aVDanManStone
p1944
aVessentialoils88
p1945
aVjustinkdavies
p1946
aVsavebritishpubs
p1947
aVJeffCambron
p1948
aVgoodbeergoodpub
p1949
aVChennaiSocial
p1950
aVJCChryJeep
p1951
aVpapayatreeW8
p1952
aVchaamNorthThai
p1953
aVladiesandco
p1954
aVTheDigitalLab
p1955
aVTheJeffNeil
p1956
aVConceptMuse
p1957
aVVejvoda
p1958
aVgreensparkling
p1959
aVWhiskibar
p1960
aVNickLongo
p1961
aVweknowmore
p1962
aVSaraMichieli
p1963
aVAmy_Hughes
p1964
aVdan_jf
p1965
aVNaked_Ape_Prod
p1966
aVD_K_I
p1967
aVGardenHousePub
p1968
aVSustainableSLC
p1969
aVShipWandsworth
p1970
aVzooluorganics
p1971
aVVitalinaEgay
p1972
aVFunnyOnlineVids
p1973
aVseo_traffic01
p1974
aVKl_dude
p1975
aVsizeminded
p1976
aVtamebay
p1977
aVmegamoneynow
p1978
aV3DThinking
p1979
aVOperationSLives
p1980
aVurbanmixer
p1981
aVNicholasVitale
p1982
aVtripwiremag
p1983
aVGetURxBackTIPS
p1984
aVbeingswell
p1985
aVsocialdaily
p1986
aVandre16rio
p1987
aVkarimacatherine
p1988
aVSuper_Design_
p1989
aVGunterSwoboda
p1990
aVdcinsiderde
p1991
aVFollowCat
p1992
aVjblm
p1993
aVVoteWhitener21
p1994
aVPaul_Bigham
p1995
aVMegOyanagi
p1996
aVsnibshikw89v85
p1997
aVCivis2
p1998
aVSimonCLarter
p1999
aVslade_kj
p2000
aVBearTrax4
p2001
aVCalmTheDragon
p2002
aVinspiremetoday
p2003
aVAndreaSabesin
p2004
aVMariSmith
p2005
aVbla_store
p2006
aVkamilavazatta
p2007
aVsincetraffic
p2008
aVnicksaber
p2009
aVtrafficslamsk
p2010
aVCase_Furniture
p2011
aVTheRoofDoctors
p2012
aVjoshfossum
p2013
aVzidutraffic1
p2014
aVthetramshed
p2015
aVsuddendoug
p2016
aVchurchinfotech
p2017
aVEddie_Godshalk
p2018
aVTheSixthLens
p2019
aVTriStarMedia19
p2020
aVTriStarMedia45
p2021
aVpholt63
p2022
aVFATMANSTKPKS
p2023
aVFIVE_supply
p2024
aVSEMinsider
p2025
aVbravadas
p2026
aVSimon170262
p2027
aVDesireForPower
p2028
aVtrafficlife42
p2029
aVExactMatchDon
p2030
aVNeloSolutions
p2031
aVadi_aditi19
p2032
aVsolaris23
p2033
aVhomebased_biz4u
p2034
aVAUSTINSFINEST11
p2035
aVKevinJBall
p2036
aVthomaucoin
p2037
aVExhibitCraft
p2038
aVjorgeaass
p2039
aVtrafficnelsa
p2040
aV2PuertoVallarta
p2041
aVweebiewebdesign
p2042
aVRobertMartz
p2043
aVBudGragg
p2044
aVpropertyhustler
p2045
aVTheGoToSite
p2046
aVLexLevinrad
p2047
aVMTAJL
p2048
aVCroatiaCamping
p2049
aVLorraineSF
p2050
aVmoneytwitmake
p2051
aVSniper_Photo
p2052
aVManpreetWadan
p2053
aVYourTango
p2054
aVfreedomsoft
p2055
aVaryap
p2056
aVjintian10
p2057
aVdcagle
p2058
aVUrRewardString
p2059
aVbmwMischelle
p2060
aVvladlihenko
p2061
aVbook_marking01
p2062
aVmistygirlph
p2063
aVStephenGaw
p2064
aVoldsweetfinder
p2065
aVrealestateisgr8
p2066
aVSkookum86
p2067
aVConstancebooks
p2068
aVflatbedme
p2069
aVWordsmithPWorks
p2070
aVlonely3023
p2071
aVCondosVallarta
p2072
aVtheWriteLines
p2073
aVscottglasser
p2074
aVMcfixit
p2075
aVmarkedlines
p2076
aVABCClothing
p2077
aVvanetworking
p2078
aVDeniseWakeman
p2079
aVtwistabout
p2080
aVYuuponDeals
p2081
aVgadgetspot2011
p2082
aVBigBoiGamer2
p2083
aVTLWH
p2084
aVeverywriter
p2085
aVIGotClocked
p2086
aVtreasurelinks
p2087
aVkosma4_
p2088
aVWebsitesWork
p2089
aVJonChevreau
p2090
aVhanktweets
p2091
aVHBPRONOW
p2092
aVWillYouAtMe
p2093
aVJacob_Hyun
p2094
aVtjr211
p2095
aVAuthorJanMarie
p2096
aVcheckitoutandse
p2097
aVcecilemiranda
p2098
aVMyTunez
p2099
aVglynahumm
p2100
aVDesignArchivez
p2101
aVElMartien
p2102
aVjjprojects
p2103
aVFlyerGoodness
p2104
aVRoseanneSchmidt
p2105
aVIkeSingh
p2106
aVLibbyDay2
p2107
aVadrixzlo
p2108
aVEricTaubert
p2109
aVbrian_blackman
p2110
aVpennecole
p2111
aVwendylynwatson
p2112
aVpablolarah
p2113
aVarticleswing
p2114
aVhawaii_coffee
p2115
aVdesignfollow
p2116
aVUGLeePen
p2117
aVHKennethSmith
p2118
aVDoranKathryn
p2119
aVLoveszar
p2120
aVProfessorJIKim
p2121
aVtrafficindi
p2122
aVbeckyfyfe
p2123
aVPBart2065
p2124
aVSpunky_Images
p2125
aVfotografias_i_a
p2126
aVVianOnWhisper
p2127
aVOrganomix
p2128
aVshaunmccloskey
p2129
aVTellYourPhone
p2130
aVWhingealot
p2131
aVovenreceipes
p2132
aVEthelynKakacek
p2133
aVtrafficeruption
p2134
aVBrandDynamics
p2135
aVeddiewu80
p2136
aVDanetteFitness
p2137
aVskyschmidt08
p2138
aVsmoothsale
p2139
aVmeetmikemorgan
p2140
aVLynhurst
p2141
aVOrganicYogaMama
p2142
aVKellyMullaney
p2143
aVDanaSFisher
p2144
aVwearesocial
p2145
aVNelson_Joseph
p2146
aVinternetsoftwar
p2147
aVadamkappel
p2148
aVSisarina
p2149
aVDioFavatas
p2150
aVmike_kohn
p2151
aVcutitall
p2152
aVjw39
p2153
aVbgluckman
p2154
aVpickycook
p2155
aVseniorhousingfi
p2156
aVStephDio
p2157
aVsuccessteamx2
p2158
aVLinkedInKing
p2159
aVPlanYrMeetings
p2160
aVMirnaBard
p2161
aV22hollywood
p2162
aVadhiezgonzales
p2163
aVloanapartment
p2164
aVredpillformula
p2165
aVCitizensIntel
p2166
aVAtrayee_De
p2167
aVScottKendallChi
p2168
aVcomm_mortg
p2169
aVsandanyi
p2170
aVsTweetCorners
p2171
aVMariannaChapman
p2172
aVNerdBoyTV
p2173
aVjtperman
p2174
aVJeffC30
p2175
aVEdussEducation
p2176
aVabstractedge
p2177
aVMaribelSimmerin
p2178
aVadrianvioli
p2179
aVdylerturdan
p2180
aV350
p2181
aVlenderapartment
p2182
aVjehampton1
p2183
aVhealth4fit
p2184
aVtinastullracing
p2185
aV1stag
p2186
aVSusanCooper
p2187
aVMomsofAmerica
p2188
aVTamaraCascone63
p2189
aVJessicaNorthey
p2190
aVlapanthereverte
p2191
aVDawnPFisher
p2192
aVottomate
p2193
aValicialyttle
p2194
aVMikeHarmon77
p2195
aVAlltop
p2196
aVoXMariahSharpXo
p2197
aVCherylVeon
p2198
aVGivemebargains
p2199
aVmaxwellvintage
p2200
aVDrAnthony
p2201
aVkellietweets
p2202
aVmarcoenfuego
p2203
aVRobinWalker
p2204
aVklaritidotcom
p2205
aVcesarviana
p2206
aVfivestarprodj
p2207
aVPaulWorswick
p2208
aVContent4Coachez
p2209
aVsamrosen
p2210
aVyvettegr
p2211
aVJackieTEwing
p2212
aVcaryganz
p2213
aVmakemylink
p2214
aVhopeintheLord23
p2215
aVjohn_stiles
p2216
aVWanderinWebster
p2217
aVMikeHaydon
p2218
aVslybry
p2219
aVlivingthepoem
p2220
aVsanma_5
p2221
aVKeithaKassimALW
p2222
aVbloggernott
p2223
aVDougSisson
p2224
aVForrest_Evans
p2225
aVDjTechno97
p2226
aVsocial27hub
p2227
aVsageman5757
p2228
aVownershipdream
p2229
aVPRDA_Asia
p2230
aVdistrictjoe
p2231
aVRobertAvila
p2232
aVstanfossum
p2233
aVdontechnology
p2234
aVthejimjams
p2235
aVjmctigue
p2236
aVBianaBabinsky
p2237
aVZillow_Premier
p2238
aVhealthdatachick
p2239
aVTimbotown
p2240
aVSusanCosmos
p2241
aVagbrindley
p2242
aVjeffkorhan
p2243
aVaccountingjobz
p2244
aVsalmanj10
p2245
aVCrunchyCarpets
p2246
aVdragonblogger
p2247
aVJustGoJoe
p2248
aVLocalMktgSavvy
p2249
aVs_grunenwald
p2250
aVrightwingsnookr
p2251
aVShySiren
p2252
aVDadsTalking
p2253
aVhortensestewart
p2254
aVrockinrobync
p2255
aVcraigsebastiano
p2256
aVPerfectPitchPR
p2257
aVBigfootFinder
p2258
aVjared_parmenter
p2259
aVcontrol_wealth
p2260
aVdsnestle
p2261
aVCindyJ_Holbrook
p2262
aVJeffHarbert
p2263
aVjamalatfeh
p2264
aVdpbkmb
p2265
aVRubenRabines
p2266
aVwgloyd
p2267
aVmindler1
p2268
aVMickeyHodges
p2269
aVsmallbizshift
p2270
aVZen_tee_
p2271
aVSilk_Winders
p2272
aVRetro_Chicago
p2273
aVSusanFloresN
p2274
aVBeltalB2B
p2275
aVworldeventblog
p2276
aVmaxvolkov
p2277
aVfeed140
p2278
aVdancandido
p2279
aVGrcSrg
p2280
aVclassmom
p2281
aViamlasolas
p2282
aVmebrophy
p2283
aVMazimooz
p2284
aVlcphotooftheday
p2285
aVbourbonblog
p2286
aVpulpandfiber
p2287
aVUjjwal_krishna
p2288
aVVeroniqueR
p2289
aVNealStudios
p2290
aVampli2de
p2291
aVjonathongoldber
p2292
aVtranscendwebs
p2293
aVEarlyDawnC
p2294
aVfrontrowreviews
p2295
aVSuuperG
p2296
aVMrDaveLaws
p2297
aVJerryLStudio
p2298
aVpackagingdiva
p2299
aVtypographyToday
p2300
aVqhub
p2301
aVericwashburn
p2302
aVryouempat
p2303
aVadietiega
p2304
aVLiturgy
p2305
aVCraftyLass1
p2306
aVPistachio
p2307
aVTrevorHurst666
p2308
aVboostforums
p2309
aVdamianschnydrig
p2310
aVwebaddict
p2311
aVphilmcdonnell
p2312
aVSocialNetDaily
p2313
aVbeiruta
p2314
aVDavidKinNJ
p2315
aVMick_Gill
p2316
aVfilmm
p2317
aVjeffrago
p2318
aVhoda007
p2319
aVkim
p2320
aVjohnfoleyjr
p2321
aVThirtyMag
p2322
aVmikewhitmore
p2323
aVILMTechnology
p2324
aVepwait
p2325
aVxanpearson
p2326
aVMelanie_Parish
p2327
aVprimetimeJoey
p2328
aVsnpearl
p2329
aVeatsandtweets
p2330
aVYBMUKLTD
p2331
aVmayhemstudios
p2332
aVjoycecherrier
p2333
aVTweetSmarter
p2334
aVargyle_sox
p2335
aVearthXplorer
p2336
aVlidaverner
p2337
aVBudgetBrakes
p2338
aVSharonHayes
p2339
aVaDanEfrank
p2340
aVAIMEtweets
p2341
aVmaxwifievents
p2342
aVBalorfiriand
p2343
aVMyRepNinja
p2344
aVUTrafficEngine
p2345
aVPattiWaterbury
p2346
aVboingo
p2347
aVwhereivebeen
p2348
aVBelievensuccess
p2349
aVpeterdjohnson
p2350
aVazmomofmanyhats
p2351
aVMerchantsgalore
p2352
aVVisitcport
p2353
aVYahooStyle
p2354
aVBizConstruction
p2355
aVJVAMarketing
p2356
aVmbl
p2357
aVlinzferg
p2358
aVayevision
p2359
aVmasterthenewnet
p2360
aVdanielmorris
p2361
aVPhotoWeddingsSD
p2362
aVCrowdfire
p2363
aVberneyandryan
p2364
aVXirrus
p2365
aVfaisalSeo
p2366
aVgonativeltd
p2367
aVmencap_charity
p2368
aVthemelib
p2369
aVumbrellacomps
p2370
aVOfficialYHP
p2371
aVGeorgettaScozza
p2372
aVCraighross
p2373
aVSusan_Cox
p2374
aVmalloryjoy
p2375
aVLondon_Law_Firm
p2376
aVRikke_Olafson
p2377
aVstevebuelow
p2378
aVShawITServices
p2379
aVsteube
p2380
aVSalehul
p2381
aVFreeMusicRO
p2382
aVniklasloven
p2383
aVsp1r1t_of_3
p2384
aVwelcomesumit
p2385
aVnettie3444
p2386
aValiciavalenciac
p2387
aVjennifersmith4
p2388
aVldnative
p2389
aVdelaleuforhaiti
p2390
aVpinakis
p2391
aVJazmineluvsJB
p2392
aVUni_IQ
p2393
aVshaylynch
p2394
aVMediaRockets
p2395
aVdrewjensen
p2396
aVbaseanswers
p2397
aVbfcandrew
p2398
aVleasimpson
p2399
aVolahyper
p2400
aVsamtast1cal
p2401
aVVenturer8
p2402
aVjohnnymoscow
p2403
aVJR_TheSpeaker
p2404
aVCrowdfundnews
p2405
aVTheGasmaskkids
p2406
aVshift_org
p2407
aVResponseSauce
p2408
aVfordecampbell
p2409
aVchrissperez
p2410
aVmccorryk
p2411
aVsjclemmy
p2412
aVBeltalUSA
p2413
aVInetsilk
p2414
aVwsblogzmagazine
p2415
aVnacht
p2416
aVJulepMedia
p2417
aVNanetteGeiger
p2418
aVYorkPriory
p2419
aVadamjhonson01
p2420
aVWIFITourismus
p2421
aVStevenRothberg
p2422
aVimplu
p2423
aVsmithhotels
p2424
aVUT_Culture
p2425
aVgregorywarre
p2426
aVboothlady
p2427
aVCreativeffects
p2428
aVStartupWeekend
p2429
aVBertrandMunier
p2430
aVPredatory_Loans
p2431
aVblueylizard
p2432
aVegomesduarte
p2433
aVFireandStone
p2434
aVTheLUXE_
p2435
aVLONscout
p2436
aVmilkmonitors
p2437
aVCafe50sWLA
p2438
aVInfoLondonToday
p2439
aVOTCSTOCKEXPRESS
p2440
aVAutopilotMLM
p2441
aVDaronBabin
p2442
aVpilotpig
p2443
aVcashmachine66
p2444
aVcashsniper
p2445
aVnotinmycuppa
p2446
aVCruzDestefano
p2447
aVPeter_Thomson
p2448
aVGDAGuru
p2449
aVUsupper
p2450
aVpostling
p2451
aVBuyinBeltal
p2452
aVgaby_agundez
p2453
aVmusicbusiness
p2454
aVTeaMartini
p2455
aVjasomsmith23
p2456
aV8000FreeMovies
p2457
aVsmumcs56
p2458
aVfon_sakata
p2459
aVDAmico_Catering
p2460
aVMarcellus3687
p2461
aVSafariKingdom
p2462
aVBathroomDesign_
p2463
aVGreg_E_Work
p2464
aVLafritcherik
p2465
aVroulettedude
p2466
aVcleverkate
p2467
aVcarlosinho
p2468
aVandreasandrews
p2469
aV_London_News
p2470
aVhostingsydney
p2471
aVhakandeliduman
p2472
aVwhistlerwifi
p2473
aVstrategicmate
p2474
aVrealbadjokes
p2475
aVAreUda1
p2476
aValexandrebp3
p2477
aVTelematICT
p2478
aVKristie_Teer
p2479
aViiloveyoutiff
p2480
aVwilliamnagase
p2481
aVnazb1
p2482
aVtanyablakey
p2483
aVallysondanylko
p2484
aVMikeONeilRocks
p2485
aVLoveCooking11
p2486
aVimverarich
p2487
aVjamacagems
p2488
aVGreen_Travels
p2489
aVchalkey01
p2490
aVmotelmiami
p2491
aVGreenDragoness
p2492
aVtommytrc
p2493
aVxandifarao
p2494
aVKristinRussel
p2495
aVsteamykitchen
p2496
aVmarcelotigre1
p2497
aVLoveeeyaforever
p2498
aVmaxaddsfaceadds
p2499
aVGansevoortMPD
p2500
aVEyeEarn_
p2501
aVpaulbarron
p2502
aVkoisasdemulher
p2503
aVTwo4ShowMedia
p2504
aVfelipenerys
p2505
aVColeDeLuca
p2506
aVTeamPromotion10
p2507
aVnoraaydin
p2508
aViimint
p2509
aVJamescarlton123
p2510
aVLuthfiumara
p2511
aVmonicasmms
p2512
aVpforgbd
p2513
aVnesablax
p2514
aVcereio
p2515
aVromulo_pn
p2516
aVO_Tizzle
p2517
aVChickaGotSwagg
p2518
aVaindavoudecidir
p2519
aVmynameischesca
p2520
aVbayudistiraputr
p2521
aViRefollowYou
p2522
aVxXxOMGfRatedxXx
p2523
aVkeven_alvez
p2524
aVsexi_amber22
p2525
aVGetWinFree
p2526
aVGrassonmydesk
p2527
aVlovatogoesdutch
p2528
aVoutsource004
p2529
aVdodieleonilaebf
p2530
aVJohn0265
p2531
aVCoPilot_Media
p2532
aVthecurelist
p2533
aVLocked94
p2534
aVformaxplay
p2535
aValgeera
p2536
aVITGATOR2000
p2537
aVsiskhazi
p2538
aVjennyaffair
p2539
aVdj2oon
p2540
aVkimsanger1
p2541
aVjoedorish
p2542
aVtrawelindia
p2543
aVjessieforshort
p2544
aVmarukofreedom
p2545
aVkamb3ng
p2546
aVsulabhjain
p2547
aVJackiechat
p2548
aVgeanigosp
p2549
aVUpTimeNet
p2550
aVEconomyHeroes
p2551
aVyoungindia123
p2552
aV8hollow8
p2553
aVJaamdev
p2554
aVBethanyZorn
p2555
aVaikon8888
p2556
aVVoteHollywood
p2557
aVOliver_Lindner
p2558
aVNAXMIX
p2559
aVabdumuteb
p2560
aVMonotizeTwiter
p2561
aVSaydieJulieAnn
p2562
aVWyndhamMidtown
p2563
aVTaleoGrill
p2564
aVphotochannel
p2565
aVRobertMStefanes
p2566
aVletsgetsocial7
p2567
aVAvivBenCohen
p2568
aVIncrTronics
p2569
aVmassageoils
p2570
aVtweetwithsteve
p2571
aVjohnchablo
p2572
aVspincyclecafe
p2573
aVlonelyplanet
p2574
aVPerkTechs
p2575
aVfattiboomboom
p2576
aVJubalApp
p2577
aVTheKefirShop
p2578
aVJoojoobmojo
p2579
aVcoloratardecer
p2580
aVsportscitygame
p2581
aVSKJ04
p2582
aVCafeHayek
p2583
aVsno_buny
p2584
aVCafeGratitude
p2585
aVUdiSch
p2586
aVCraigElias
p2587
aVTimElmore
p2588
aVJamieCrager
p2589
aVLDNdesignfair
p2590
aVYourPolishHotel
p2591
aVFalyrion2000
p2592
aVcompfixhd
p2593
aVFollowers9
p2594
aVHollywoodnHell
p2595
aVericgoldstein
p2596
aVMarketing_Magik
p2597
aVSurreyTaiChi
p2598
aVquippdBusiness
p2599
aVAnders_Setten
p2600
aVSweetWishesCafe
p2601
aVignite_london
p2602
aVbc42
p2603
aVblinvolley
p2604
aVhollyamberpsy
p2605
aVvailcozumelgirl
p2606
aVcontinuumcg
p2607
aVFlaHotelDeals
p2608
aVHRCSD
p2609
aVAdvertising__
p2610
aVVillageBakeryLA
p2611
aVanna_rich
p2612
aVPrayMaddyMcCann
p2613
aVmksaegypt
p2614
aVcynthiawijaya82
p2615
aVNaliombor
p2616
aVoibanzi
p2617
aVCNNOlympics
p2618
aVcavlinc
p2619
aVZoraidaGrimme
p2620
aVbersheeba
p2621
aVLoftSpaceNet
p2622
aVsearchdentists
p2623
aVZagat
p2624
aVSilviaSuperMom
p2625
aVthomaspower
p2626
aVtrademarkregis
p2627
aVRichard3545
p2628
aVMass5644
p2629
aVNathan264
p2630
aV4Eunice
p2631
aVTremayneStar
p2632
aVTovaHauley
p2633
aVTelundel
p2634
aVRodman642000
p2635
aVSam4nderson
p2636
aVMissCrazzzzy
p2637
aVOLDCyberHostPro
p2638
aVrondrond
p2639
aVCirque
p2640
aVjuanenjoyslife
p2641
aVsecret_london
p2642
aVtlchico
p2643
aVWendyHartley
p2644
aVNewsHour
p2645
aVGeorgeHelouEP7
p2646
aVyokoono
p2647
aValyanatn
p2648
aVBetinaMaaria
p2649
aVMikeHowell1991
p2650
aVBiebAustin14
p2651
aVushdsuhdhdhsadd
p2652
aVJBieberAUSArmy
p2653
aVJayBieves
p2654
aVTeamKB01
p2655
aVimmalyn
p2656
aVApostoQuee
p2657
aVfynhoalmeida
p2658
aVRT_Voto_nulo
p2659
aVisadora321
p2660
aVentunderground
p2661
aVmickiegd
p2662
aVL2Program
p2663
aVhealsoune
p2664
aVkimberliotcm
p2665
aVelvagt
p2666
aVskconnect
p2667
aVmelissaapmbn
p2668
aVlashellcigt
p2669
aVproghana1
p2670
aVyasmineiqc
p2671
aVHow2WatchTV
p2672
aV1workonline
p2673
aVletitiarosie
p2674
aVNeathenAlero
p2675
aVlovgdhvdjdy
p2676
aVBiebsmeetHayIey
p2677
aVmartimarts
p2678
aVkidrocketjr1_8
p2679
aVFunnyInsults
p2680
aVISupportBeeBee
p2681
aVerikneiva
p2682
aVDemilishionICE
p2683
aVvipuraiumps3
p2684
aVgaaaayy
p2685
aVglamorouskzia
p2686
aVelroyy15
p2687
aVWhyYouInsecure
p2688
aVHueyFreeManJr
p2689
aVItsMeAic
p2690
aVElSeRRaOr
p2691
aVjakurhero
p2692
aVKOneal32
p2693
aVJexillla
p2694
aVHarryOverton1
p2695
aVemilysandikoppn
p2696
aVdenymins
p2697
aVneedweightloss
p2698
aValanac28
p2699
aVMarissaS_2015
p2700
aVNiltonMorais
p2701
aVBryce4life
p2702
aVdepression03
p2703
aVJuicyDCouture
p2704
aVKiranazhfr
p2705
aVAdoreBiebs
p2706
aVEdwardCarter89
p2707
aVinfinityblank
p2708
aVfodaediferente
p2709
aVJustinDBiebOLLG
p2710
aVDADONTONY
p2711
aVcediistar
p2712
aVIAMJroze
p2713
aVdominiccampbell
p2714
aVRaveInnovate
p2715
aVAirspotWiFi
p2716
aVwiseguyrussell
p2717
aVZensaibar
p2718
aVScruffles3
p2719
aVlocowire
p2720
aVLPQUK
p2721
aVukseries
p2722
aVthe_nebulae
p2723
aVwee_rebel
p2724
aVMessageWorksCom
p2725
aVWalesCoOpCentre
p2726
aVTheEazipayTeam
p2727
aVpratap3086
p2728
aVTowne_Centre
p2729
aVMatthewSKramer
p2730
aVbilli_hix
p2731
aVHsiNetworks
p2732
aVCallowTop
p2733
aVTheCriticList
p2734
aVmeatspaces
p2735
aVeasywifi
p2736
aVwifihotspotsuk
p2737
aVmturner102
p2738
aVgowex
p2739
aVRelocate2London
p2740
aVAsiaRF_Group
p2741
aVgmweemba
p2742
aVwifi_restaurant
p2743
aVandrewstephensc
p2744
aVWavesightLtd
p2745
aVZUMBEEL
p2746
aVfreewifihere
p2747
aVlupm
p2748
aVgertjanvanstam
p2749
aVfluidmesh
p2750
aVCHEOTIC
p2751
aV3Gand4GMobile
p2752
aVGardner_846
p2753
aVRomero_676
p2754
aViphonethemeppc
p2755
aVriostec
p2756
aVbiglaisee
p2757
aViamlittlebird
p2758
aVmelodycurtis
p2759
aVRebel_barbers
p2760
aVRFWireless
p2761
aVwebrazilbr
p2762
aVadriancunliffe
p2763
aVSAOCHEMY
p2764
aVdrewmunn
p2765
aVnickcramp
p2766
aVmultipage
p2767
aVhowtocrackwpa
p2768
aVpaddolker
p2769
aVTrosticles
p2770
aVLookLEDTV
p2771
aVBelAirNetworks
p2772
aVtelecommonthly
p2773
aV802Air
p2774
aVoneidacec
p2775
aVairlinefare
p2776
aVio_me
p2777
aVEvertB
p2778
aVpeppasheridan
p2779
aVwlan_antenna
p2780
aVLEMITCHAN
p2781
aVexplorescotland
p2782
aVdrtomwatson
p2783
aVProxim
p2784
aVtheboybg
p2785
aVGlobalReachTech
p2786
aVSlingBroadband
p2787
aVconfero24com
p2788
aVRowplatt
p2789
aVwifisphare
p2790
aVwifi_guy
p2791
aVmoveandshake
p2792
aVsimon_morley
p2793
aVsimonpmorley
p2794
aVebusinesswizard
p2795
a.