(lp0
VCryptoNoobIco
p1
aVJasonSipePDX
p2
aVswiftclipping
p3
aVFarhadIstiyak
p4
aVDhakaPath
p5
aVeasyberryTwitt
p6
aVdarrynten
p7
aVSpiderOak
p8
aVpieterse_wessel
p9
aVAnnekeMeijers
p10
aVAMAZINGDUDE113
p11
aVangelsports189
p12
aVRosieTheDiva199
p13
aVSuperGamer1879
p14
aVNezirSekiraqa
p15
aVxesto_io
p16
aVwebotechnology
p17
aVagreed_startup
p18
aVajflubbe
p19
aVjohncdalton
p20
aVrohitsrigyan
p21
aVClippingCrowd
p22
aVfmi_electronics
p23
aVsuinInstruments
p24
aVjacdevos
p25
aVBenchmark_BES
p26
aVthe_mike_h
p27
aVWimMorris
p28
aVkarischoonbee
p29
aVNuBeginningsSA
p30
aVSleighHarper
p31
aVdevgrowthack
p32
aVderickschmidt
p33
aVScobleizer
p34
aVDanielCWest
p35
aVlunomoney
p36
aVforgetech
p37
aVoutsystemssa
p38
aVdrubin87
p39
aVheliumapps
p40
aVRaypcb20
p41
aVEvaLiu2016
p42
aVpwab
p43
aVdpcoetsee
p44
aVMoniqueMentio
p45
aVfrancoisvn
p46
aVbalindielug
p47
aViamsqueee
p48
aVOfferZen
p49
aVConcettaIsolano
p50
aV_AnitaNel
p51
aVBlueOptima
p52
aVjacomyburg
p53
aVnkateko_chauke
p54
aVVentech_VC
p55
aVQuadriadejare2
p56
aVGliderBoardSA
p57
aVPierreGaleon
p58
aVReeceDimmick
p59
aVFinTech_Africa
p60
aVestiaan
p61
aVYueDiligence
p62
aVMichael46650404
p63
aVmahmoud198931mm
p64
aV41ca146c2890432
p65
aVOnQuality
p66
aVWrathZA
p67
aVbeswickzane246
p68
aVGareth_More
p69
aVsebanele25
p70
aVgetsaent
p71
aVfullung
p72
aVLiquitrack
p73
aVthobi2429
p74
aVjanmatern
p75
aVpacktdailyfree
p76
aViemvoha
p77
aVCustomisedApps
p78
aVConrad_Sidego
p79
aVconnectwithcore
p80
aVelasticninja
p81
aVthemarcallen
p82
aVIzak_ivacc
p83
aVMotiv8Forums
p84
aVNethomichel83
p85
aVSnap_EDA
p86
aVrodvdka
p87
aVcavityclaimuk
p88
aVcolinGravity
p89
aVsandikrakowski
p90
aVRamperkash
p91
aVodaiperi
p92
aVbanivdm
p93
aVPretoriusEugene
p94
aVBelyve_Support
p95
aVfoundedinsa
p96
aVengsolverltd
p97
aVMDsearchgroup
p98
aVllangeveldt
p99
aVpetermutivi
p100
aVridgek1975
p101
aVMbwana
p102
aVgalewaqojij
p103
aVlabuscv
p104
aVgrtrsys
p105
aVStartupKnight
p106
aVConcilioTax
p107
aVTazzmrazz27
p108
aVcobiinteractive
p109
aVAntSelley
p110
aVgizmogirlsf
p111
aVsynapse_za
p112
aVIEEE_ZA
p113
aVfrank_meehan
p114
aVLeonvNiekerk
p115
aVhelenechick
p116
aVLPRS_Ltd
p117
aVjanpool27
p118
aV4bitcoin
p119
aVwidget4bc
p120
aVCrowdEnergyFAU
p121
aVMcRyuqii
p122
aVBitcoinZAR
p123
aVScarlettSieber
p124
aVLinnartFelkl
p125
aVWickerRainsqke
p126
aV4imobile
p127
aVfpretief
p128
aVEstelleDaGr8
p129
aVTechGhana
p130
aVdragangrafixsmp
p131
aVStelliesDigital
p132
aVwillemvzyl
p133
aVatheunissen
p134
aVM_Bigalke
p135
aVSpeedyCPT
p136
aVCapeCalendar
p137
aVSuitophobia
p138
aVzepobamywil
p139
aVQbixApps
p140
aVDrupalCapeTown
p141
aVAlexMeiring
p142
aVmashininibafana
p143
aVryan_gatchalian
p144
aVjonathan_abra
p145
aVjonasstray
p146
aV5P4RK3Y
p147
aVSnapScanApp
p148
aVPliensie
p149
aVfchristodoulou
p150
aVO_Harrington
p151
aVTheilovecompany
p152
aVhnshah
p153
aVAngelisElectron
p154
aVborisjonez
p155
aVDarlaBigham
p156
aVMascotas_Ya
p157
aVHelpfulApps
p158
aVvulcanalia
p159
aVKey_Connections
p160
aVEmpwrAfrica
p161
aVandertoons
p162
aVTeo_Luv
p163
aVcoinsprint
p164
aVlouis_ferreira
p165
aVAnnel_M
p166
aVheinkoen
p167
aVSAINE_SA
p168
aVCuppaconvo
p169
aVAllThingsPlaid
p170
aVkabloemski
p171
aVAnimalWelfareSt
p172
aVFredericklutz
p173
aVTortoise3Hare
p174
aVFanie_Deysel
p175
aVAfricanSunMedia
p176
aVlive2bnana
p177
aVMcUrfe
p178
aVrenierkriel
p179
aVdasijoe
p180
aVchriswhocodes
p181
aVcapetown_rb
p182
aVadelekejare
p183
aVantoinetteCoet
p184
aVtriggerbox
p185
aVTheLTBNetwork
p186
aVClarensGoGreen
p187
aVFireID
p188
aVPolymorphApps
p189
aVSolutionsonsite
p190
aVKorwe
p191
aVmichael_perks
p192
aVarbitraryuser
p193
aVBandwidthBarn
p194
aVstephenballot
p195
aVSharnaSammy
p196
aVjohn_gilmore
p197
aVANDRO1Dgadget
p198
aVVisagieElana
p199
aVKelly_Fraser
p200
aVdutoitns
p201
aVHandyTechTipper
p202
aVimpolitecoin
p203
aVmaroogle
p204
aVstartupadvizer
p205
aVRealStartupBook
p206
aVknowtoneed
p207
aVgussilber
p208
aVNateKettles
p209
aVdmweyer
p210
aVLKBishere
p211
aVvrystater
p212
aVmorkelvander
p213
aVk1d_bl4ck
p214
aVStraatKatBasson
p215
aVAdelePool1
p216
aVBieggsLegacy
p217
aVLeapMotion
p218
aVANewInspiration
p219
aVLeapMotionDev
p220
aVlouis_jordaan
p221
aVEranEyal
p222
aVDJ_JazE
p223
aVrogernort
p224
aVMmtvPaul
p225
aVtaniasupagirl
p226
aVEdOBoyle
p227
aVmikro2nd
p228
aVmobidickza
p229
aVByteOrbit
p230
aVSoftwareWeek
p231
aVtimlind
p232
aVJohanPieters
p233
aVdawidvangraan
p234
aVlogb33
p235
aVFlow_SA
p236
aVSteve_KRS
p237
aVhendrikvh
p238
aVvivaPalooka
p239
aVblakey
p240
aVMousePointers
p241
aVbriendesign
p242
aVIconWantedCom
p243
aViconlover
p244
aVjourneyapps
p245
aVSweetPotato_RSA
p246
aVmichael_erasmus
p247
aVtheab
p248
aVImpressMeApp
p249
aVlor_krs
p250
aVjanette080889
p251
aVpyconza
p252
aVRAKIndia
p253
aVB10Ha2ard
p254
aVcobusleroux
p255
aVthepoolmasters
p256
aVmoonlight42
p257
aVMartin_Ras
p258
aVWernzio
p259
aVbjnortier
p260
aVjustcallmephill
p261
aVHGMarais
p262
aVblinktower
p263
aVnieldlr
p264
aVmaiatoday
p265
aVjessello
p266
aVd2dpodcast
p267
aVSwimGeek
p268
aValainkingza
p269
aVjohanbeyers
p270
aVkureiguX
p271
aVLenSteenkamp
p272
aVdalehumby
p273
aVfox_fleeting
p274
aVsteph_pienaar
p275
aVconnieo
p276
aVFakeCTO
p277
aVKeetvZ
p278
aVLeanneNel
p279
aVpatrick_vine
p280
aVPavelDabrytski
p281
aVKennyInggs
p282
aVphilbuktoo
p283
aVcleanbottle_za
p284
aVmariskaza
p285
aVmycamera_co_za
p286
aVStormvdm
p287
aVAdrivanderMerwe
p288
aVhackstb
p289
aVSybuData
p290
aVsimondlr
p291
aVBambi_cutieeee
p292
aVIvonikaTiara
p293
aVCara_Faye
p294
aVcapetownactive
p295
aVd4v3g
p296
aVmandertainment
p297
aVcubbicsxx
p298
aVmobivangelist
p299
aVPetrusTheron
p300
aVchanimacauley
p301
aVparautenbach
p302
aVchristiaanbrand
p303
aVTimeScapers
p304
aVLeanStartupZA
p305
aVCircadianSA
p306
aVInquisitionSA
p307
aVdouglasdaytweet
p308
aVdecastalibro
p309
aVfromtheold
p310
aVGrowingAgile
p311
aVallysonwilsonco
p312
aVsiviwesisusa
p313
aVAfrica_Desk
p314
aVr3tsma
p315
aVknow_mad
p316
aVSystemsSimplify
p317
aVbobbybrownza
p318
aVpurcell_sa
p319
aVEduvate_
p320
aVbeauclairrza
p321
aVJenniferLorenss
p322
aVAppositionC
p323
aVSPN8
p324
aVCALLTOGLORY66
p325
aVmoniquem777
p326
aVgstober
p327
aVcobusbernard
p328
aVlilkimbreez
p329
aVi_am_hema_
p330
aVbrianfordza
p331
aVreinbr
p332
aVMikeDalton
p333
aVabdulkadirmiran
p334
aVbrenxl
p335
aVGnotlib
p336
aVcarienvz
p337
aVgarrettgillas
p338
aVcahofmeyr
p339
aVChiccoBabySA
p340
aVbosvossie
p341
aVdailyskoop
p342
aVWillemFish
p343
aVaustin_fagan
p344
aVNewMediaLabs
p345
aVTordf
p346
aVilzedutoit
p347
aVledface
p348
aVabeldup
p349
aVdavidcampey
p350
aVdixxiedean
p351
aVmolocapetown
p352
aValbert_swart
p353
aVbrianhurley
p354
aVbazookagames
p355
aVPitch_Doctor
p356
aVAgileLearning
p357
aVdonnadecor
p358
aVphiliplourandos
p359
aVGlobalNewsCorp
p360
aVgeekTs
p361
aVjcrossland
p362
aVnetgensoftware
p363
aVnaeem_ally
p364
aVphotodvdmaker
p365
aVwurflws
p366
aVavesse
p367
aVstucorbishley
p368
aVrobertfall
p369
aVpencilgirlsa
p370
aVOxzenMedia
p371
aVw_kitching
p372
aVholtzhau
p373
aVJennyMcKinnell
p374
aVmichaelwiles
p375
aValwynvanwyk
p376
aVannua
p377
aVpietermuller
p378
aVstbfoundry
p379
aVctconferences
p380
aVphindi
p381
aVmark_at_sparc
p382
aVThebestofCT
p383
aVsteliogouveia
p384
aVdirkjobosman
p385
aVUni_IQ
p386
aVmdpmarketing
p387
aVarnovanrensburg
p388
aVfiberglasspoold
p389
aVtheovn
p390
aVsimranjames
p391
aVchmdebeer
p392
aVmihmedialab
p393
aVsdhansay
p394
aVcharlbrink
p395
aVnilssonjohan
p396
aVctjug
p397
aVStevevdMerwe
p398
aVadriangcooke
p399
aVflickswitchSIM
p400
aVInfointeg
p401
aVWhiteCement
p402
aVbanOTCderivativ
p403
aVRbjacobs
p404
aVcsindle
p405
aVrorymckinley
p406
aVMmeZelda
p407
aV_kuschke
p408
aVprojectania
p409
aVBosvos77
p410
aVajBoogy
p411
aVvagueware
p412
aVApie
p413
aVarabindian
p414
aVreubenmorgan
p415
aVbrinkvdm
p416
aV2010CL
p417
aVDeanaWynn400
p418
aVchrisoloff
p419
aVbenjackus
p420
aVVogonPoet
p421
aVJoanWheeler850
p422
aVgustible
p423
aVRichardWooding
p424
aVSolis_904
p425
aVDrinkandShrink
p426
aV4eek
p427
aVshanak
p428
aVStellenboschUni
p429
aVC_V_P
p430
aVhermanlintvelt
p431
aVlwbotha
p432
aVironicbuddha
p433
aVhebrecht
p434
aVcarelvwyk
p435
aVbsilberbauer
p436
aVkonradblum
p437
aVprperold
p438
aVCT_SPIN
p439
aVwillemodendaal
p440
aVmadelevdwalt
p441
aVrinbrand
p442
aVMartinWrightCVP
p443
aVMarionVL
p444
aVIceBergpool
p445
aVMattBallard
p446
aVhermmx
p447
aVmciSA
p448
aVpieterwnel
p449
aVgrumpyoldtechie
p450
aVLorestProducts
p451
aVdavidrichfield
p452
aVhreikeras
p453
aVSkaaptjop
p454
aVvaughndickson
p455
aVRiaanpool
p456
aVProgmanager
p457
aVWealthFormula_x
p458
aVWearable_Towel
p459
aVgeniusboywonder
p460
aVare_u_a_nudist
p461
aVtavdw
p462
aVDirkBull
p463
aVBTpmp
p464
aVfreeworldart
p465
aVfrankortmann
p466
aVretiefgerber
p467
aVcarnun
p468
aVcellsino
p469
aVJohnJ12
p470
aVveryflatcat
p471
aVernstk
p472
aVPeterHundermark
p473
aVFrancoisRetief
p474
aVkobieza
p475
aVskroon
p476
aVthepoolzone
p477
aVllude
p478
aVZestWare
p479
aVriaankok
p480
aVcvoxel
p481
aVrichardbranson
p482
aVhugovdm
p483
aVchrisventer
p484
aVavisagie
p485
aVstefanvdwalt
p486
aVgvrooyen
p487
aVelanavisagie
p488
a.