(lp0
VReactDOM
p1
aVpranavlathigara
p2
aVYouTapia
p3
aVKimberleyPoba
p4
aVBadooTech
p5
aVDevloperPips
p6
aVreactres
p7
aVStudentofJS
p8
aVhoangnamhai
p9
aVRheaVenturi
p10
aVreactdayberlin
p11
aVEsedjo
p12
aV6YUUZrjd
p13
aVmikerazzmatazz
p14
aVPvalsfr
p15
aVtmvvr
p16
aVcarlosrossonero
p17
aVraphh
p18
aVmahmoud_alsati
p19
aVAdrien0
p20
aV_agtlucas
p21
aVfuechsina
p22
aV_shedev
p23
aVdarkfrontcode
p24
aVken_wheeler
p25
aVookla1977
p26
aVSantalJohnson
p27
aVkeyan12
p28
aVrichmcm
p29
aVJuliekyi1
p30
aVAllsetBu
p31
aVglabcn
p32
aVfil_ter
p33
aVmsbrandymorgan
p34
aVminderaswcraft
p35
aVmr_eddieee
p36
aVpsarakism
p37
aVreactnativeedu
p38
aVfabiobluiz
p39
aVBradPillow
p40
aVbarankucukguzel
p41
aVKarimFillal
p42
aVp3drosola
p43
aVDRAWNDdown
p44
aVit3krakow
p45
aVDavidReveillon
p46
aVgershon77
p47
aVjedatron
p48
aVfurzeface
p49
aVDropclusive
p50
aVnaoufal
p51
aVgregbarborini
p52
aVhmily_jenny
p53
aVmontooshah
p54
aVmusomatt
p55
aVcallirgos01
p56
aVOzgurAlen
p57
aVtwlanas92
p58
aVismga
p59
aVmagyarsrac
p60
aVjerolimov
p61
aVszmidku
p62
aVjgautheron
p63
aVDavidNiembro
p64
aVTussQuss
p65
aVLeonJerinic
p66
aVmichelmongkhoy
p67
aVsforkmann
p68
aVDominikHaska
p69
aVMaaltar
p70
aVkerlang2515
p71
aVlearnbootstrap1
p72
aVGpx
p73
aVHelloML9
p74
aVswiss_webmaster
p75
aVpadupuy
p76
aVanchnk
p77
aVlucasratmundo
p78
aVjackb2
p79
aVholaconstancio
p80
aVgbankuti
p81
aViDalhaug
p82
aValex__zamfir
p83
aVfelix_mr
p84
aVAnsiByteCode
p85
aVDrReinhold
p86
aVjorisCalabrese
p87
aVabanobboles
p88
aVbenjaminspak
p89
aVandythepope
p90
aVmr_freelo
p91
aVMattiasMuhonen
p92
aVsrrosengren
p93
aVhab_mic
p94
aVhpettersson
p95
aVistvankuti
p96
aVJesperLekland
p97
aVSetoDeDoChu
p98
aVsomerandstring
p99
aVR_N_Radio
p100
aVitsakeller
p101
aVHenryPhan007
p102
aVpustelto
p103
aVPAksonov
p104
aVagm1984
p105
aVdandesz198
p106
aVhanxingke
p107
aVsamanthabretous
p108
aVnimrodargov
p109
aVGuillaumeBerto
p110
aVantonkaa
p111
aVVladimirNovick
p112
aVDavidAdamczyk
p113
aVfarazKhan404
p114
aVadam_bene
p115
aVRNLmeetup
p116
aVjsfroth
p117
aVchirag__sharma
p118
aVheroku
p119
aVLester23720030
p120
aVmedziiik
p121
aVM_Plot
p122
aVmauscoelho
p123
aVivoencarnacao
p124
aVorlandogodoy
p125
aVtavofigse
p126
aVmarkdrew53
p127
aVmarinabarbosa47
p128
aVjavegon
p129
aValeixdeve
p130
aVlocropulenton
p131
aVgalchwyn
p132
aVtlakomy
p133
aVmartinkonicek
p134
aVleocolodette
p135
aVMelissaBenziane
p136
aVAntonSpock
p137
aVhankaseweryn
p138
aVbenmvp
p139
aVtakiarek
p140
aVmartinlechner_
p141
aVhussulinux
p142
aVneliojrr
p143
aVy276161014
p144
aVintergalaktisch
p145
aVcalbucci
p146
aVjlabetoulle
p147
aVtornad17
p148
aVmaiorov1
p149
aVSandroEMachado
p150
aVygorlf
p151
aVgoldenamine
p152
aVgoblindegook
p153
aVjchirschy
p154
aVhomborg
p155
aVneyammounie
p156
aVandonsikavica
p157
aVqzimy
p158
aV_piotr
p159
aVjavierlarred
p160
aVfadehelix
p161
aVPelikhan_WebDev
p162
aVt_scharke
p163
aVfollowdev1
p164
aVqdbpl
p165
aVtweetx24
p166
aVevankstone
p167
aVjimmiejephson
p168
aVMooonJames
p169
aVaghh1504
p170
aVhsuastegui
p171
aVandrioid
p172
aVplrthink
p173
aVIlanBenhamou
p174
aVvictorzamfir
p175
aVsebastiansoft
p176
aVgkhorguani1
p177
aVrakannimer
p178
aVJarsen
p179
aVApostolisEco
p180
aVandrestaltz
p181
aVLukasVagenknech
p182
aVPKodmad
p183
aVLisowskaAn
p184
aVOttoKK
p185
aVdenoStc
p186
aVreal_onse
p187
aVeubenesa
p188
aVcs_agat
p189
aVSteven_Vorthil
p190
aVstephanjacobs07
p191
aVchunghe
p192
aVasaenko
p193
aVMosiMoradian
p194
aVpillar15
p195
aVaaronjgreenwald
p196
aVvikkiread
p197
aVanbz
p198
aVJoewDev
p199
aVthadeuszlay
p200
aVkavehrahimian
p201
aVshadyanwar
p202
aVNikitaLiashenko
p203
aVjanmarsicek
p204
aVririck
p205
aVlstorelli
p206
aVsonimayur007
p207
aVnikbrb
p208
aVOscarGraciae
p209
aVbvth511
p210
aVd_akilbekov
p211
aVjfescobarb90
p212
aVstuarthanscombe
p213
aVKitchyGold
p214
aVLilaNOLA44
p215
aVgabe_g2i
p216
aVgreis
p217
aVewndl
p218
aV_vijar
p219
aVziedhajsalah
p220
aVsseraphini
p221
aVwuufone
p222
aVleeight
p223
aVSmallYuer
p224
aVasifssarker
p225
aVandiradulescu
p226
aVJohnEMaddux
p227
aVnadouani
p228
aVmanuelkalla
p229
aVrcugut
p230
aVjferrettiboke
p231
aVKarine_twitt
p232
aVdanslavetskiy
p233
aVhagenverfolgt
p234
aViremlopsum
p235
aVVilleImmonen
p236
aVevanjbrunner
p237
aVJamamuuga
p238
aVangelaknicholas
p239
aVmejdi_dingua
p240
aVM1ndaugasJ
p241
aVguilharj
p242
aVaibrahim16189
p243
aVJeffoSzlezak
p244
aVmustafasf
p245
aVIgortolivei
p246
aVpepibumur
p247
aVBenchR
p248
aVradexp
p249
aValloy
p250
aVheweltS
p251
aVinfinite_frank
p252
aVedgarik97
p253
aVgreg_blass
p254
aVpolyhexlabs
p255
aVprabh_62
p256
aVmane87
p257
aVwillappreciate
p258
aVGroundControl
p259
aVoperatino
p260
aVPeter_Machowski
p261
aVArcadeHero
p262
aValvaromb
p263
aVnoldotar
p264
aVkerbler_sascha
p265
aVrodionovp
p266
aVthatbigredsun
p267
aVcball_
p268
aVCharles_Mangwa
p269
aVSalkoNuhanovic
p270
aVnodediggity
p271
aVhhamadeh
p272
aVstraku2
p273
aVtinojunge
p274
aVmokadung
p275
aVWonlyer
p276
aVKelset
p277
aVdesignorant
p278
aVjosomers
p279
aVfdnhkj
p280
aVcallstackio
p281
aVttraenkler
p282
aVRoaneZone
p283
aVAvivRubys
p284
aVNativeBaseIO
p285
aVYaoFur
p286
aVMarkus306
p287
aVACresta88
p288
aVfray_88
p289
aVp_helka
p290
aVpqboom
p291
aVReactAmsterdam
p292
aValvustinov
p293
aVmostruszka
p294
aValimek_
p295
aVpesterhazy
p296
aVbjornrixman
p297
aVjonrh
p298
aVwmaesschalck
p299
aVnosjoel
p300
aVsuevalov
p301
aVMyGuySi
p302
aVrndrbn
p303
aVVanoual
p304
aVrafayepes
p305
aVcolinwrenca
p306
aV___aerox___
p307
aVThisIsMissEm
p308
aVFur6y
p309
aVferrannp
p310
aVdabit3
p311
aVkate_smolarek
p312
aVWojciechKwiatek
p313
aVsouhepend
p314
aVpotomushto
p315
aVsteida
p316
aVcem2ran
p317
aVJonasWho
p318
aVkureevalexey
p319
aVpiotr_zuralski
p320
a.