(lp0
VRSAFellowsForum
p1
aVdanaxson
p2
aVOnlookrApp
p3
aVAl_onlookr
p4
aVnicolaswrd
p5
aVDMU_CyberTech
p6
aVArcheryAtSussex
p7
aVjbdcolley
p8
aVmou_designer
p9
aVemailoctopusco
p10
aVrandolfselezny1
p11
aVNordensAccounts
p12
aVseedlegals
p13
aVprasanthprpilla
p14
aVBusRatesSE
p15
aVSussexUniLies
p16
aVSussexUni_OA
p17
aVConjure
p18
aVinfluxtrust
p19
aVnatuko391
p20
aVSussex_fauxbal
p21
aVCryptocoinAPI
p22
aVRuukel
p23
aVResearchInFocus
p24
aVleadingedgeonly
p25
aVCallumRuddock
p26
aVBarnettCriminal
p27
aVp7r
p28
aVFauvaux1
p29
aVajchrumka
p30
aVmodelofficeuk
p31
aVTheFundingGame
p32
aVkoinosapp
p33
aVTravelnPleasure
p34
aVistvanzkiss
p35
aVvipink_81
p36
aVktheo2010
p37
aVRSteliaros
p38
aVSingleSucessful
p39
aVeluciduk
p40
aVtekcapital
p41
aVthormagnusson
p42
aVurbanebikes
p43
aVTonyinhawaii
p44
aVdenissevj
p45
aVdeckchairhq
p46
aVlellodigital
p47
aVWorld_of_Travel
p48
aVEr241Mor
p49
aVLocalGuddy
p50
aVglimpsedash
p51
aVExploretravel2
p52
aVtiny_anim
p53
aVgrapheelTeam
p54
aVjackiecassell
p55
aVTopTenPercent_
p56
aVstephenfortune
p57
aVOzLabz
p58
aVartu_kan
p59
aVmialomo
p60
aVCrowdfundingDo
p61
aVrichpwilson
p62
aVthrivahealth
p63
aVMktg_Mavens
p64
aVborder_lineplay
p65
aVilapscom
p66
aVangelprodt1c
p67
aVTimPBreden
p68
aVtimtaylorrec1
p69
aVfabsalva
p70
aVnigerianblogger
p71
aVsjmpeeters
p72
aVjewl
p73
aVJC_Crowdcube
p74
aVGintarema
p75
aVSteveMSweet
p76
aVSussexUniRQI
p77
aVblyuss
p78
aVtukeke
p79
aVSookmook
p80
aVpeterlane
p81
aVInspiredY0U
p82
aVsharonshane01
p83
aVTheBadgerNews
p84
aVEdisonTelecomms
p85
aVAstroSeb
p86
aVProbAtSussex
p87
aVtklingard
p88
aVHakanto48256183
p89
aVMatthew_Tiernan
p90
aVecam85
p91
aV3omarlakkis
p92
aVCIJscience
p93
aVpinkyandnobrain
p94
aVlucberthouze
p95
aVsamerpik
p96
aVSimonChuter
p97
aVkkellyro
p98
aVGetSuggestv
p99
aVadamdepanam
p100
aVlawrence252575
p101
aVGlennDigitalPSC
p102
aVSussexTEL
p103
aVjpcheetham
p104
aVSussexUniStaff
p105
aVSussexUniPress
p106
aVMichelf99
p107
aVbbxangels
p108
aVB2BGLOBALNET
p109
aVSeraphina2010
p110
aVKTNUK_Health
p111
aVConversationUK
p112
aVneo_growth
p113
aVMooVooZ
p114
aVbart_delgado
p115
aVInnovation_DB
p116
aVjennygimpel
p117
aVhilarymortimer
p118
aVDrDasB
p119
aVPloughshare1
p120
aVtwhume
p121
aVKristine3108
p122
aVRossanaDowsett
p123
aVSaskiaGent
p124
aVAdrianaHamacher
p125
aVmemphisslim74
p126
aVHeadoutside
p127
aVThorbisLLC
p128
aVpeggy8080
p129
aVsusiejo12
p130
aVSouthEastEdu
p131
aVMacopoPt
p132
aVljcjug
p133
aVstaceescott35
p134
aVoutsourcetalent
p135
aVClusterCosmos
p136
aVmshabaz
p137
aVSheepdogSci
p138
aVpixcphotos
p139
aVgigiportero639
p140
aVsolchiro
p141
aVLivingWageUK
p142
aVFathiTarada
p143
aVagildea2
p144
aVWFMCare
p145
aVtandp_usa
p146
aVThaniaPJewels
p147
aVRakeshVallil
p148
aVbeta_beach
p149
aVTravisLourensz
p150
aVaarohiTD
p151
aVmikidoznthinkso
p152
aVkidilboy
p153
aVHughTaxAssistE4
p154
aVomar199619960
p155
aVChinthuvb
p156
aVkhaled69b1
p157
aVdavindercsingh
p158
aVeileenschuch
p159
aVDebbas
p160
aVPeteDonHurley
p161
aVjkagric
p162
aVchiacupuncture
p163
aVtwistilledtest
p164
aVFarmerFunster
p165
aVAnkeLohmann
p166
aVParthi999
p167
aVVazhakathSijesh
p168
aVbokieffer
p169
aVshabirahmadwan1
p170
aVangelprodt1
p171
aVbrennofarias30
p172
aVtelescoper
p173
aVausteopath
p174
aVsuchcooldeals
p175
aVredwoodblack
p176
aVkryseanscruggsy
p177
aVavamaelondon
p178
aVmarkahowell2
p179
aVSkogPaul
p180
aVCrowdTAngels
p181
aV0526456412h
p182
aVamanda12473
p183
aVAndreiOprisan
p184
aVx0Yadix0
p185
aVcnmlr7303
p186
aVLuciaMariaSales
p187
aVfordec28
p188
aVdevopsdaysDerby
p189
aVkongvuthykh1
p190
aVartoriu7
p191
aVGordon3838
p192
aVZAFIRKHAN11
p193
aVParcelgenie
p194
aVrooplal_roop
p195
aVAless_Faraci
p196
aV8898075c81b34ff
p197
aVshortykarg90
p198
aVTheBagbyGroup
p199
aV896a451f452346a
p200
aVDustyDavesXI
p201
aVMr_G_Nickels
p202
aVshar_devo
p203
aVnakulguptaa
p204
aVKarenBricko
p205
aVionelionel8
p206
aVStevenStonerA1
p207
aVAlia1234556
p208
aVgomez_pogi
p209
aVLilou2016
p210
aVBlaiseCHOKI
p211
aVhhakx
p212
aVyutelin
p213
aVCakey_Nishaaaa
p214
aVkhaleido
p215
aVtyhayden95
p216
aVoffroadonthego
p217
aVrozek82
p218
aVReizaokyRither
p219
aVaysywanafeed32
p220
aVjordijordi18
p221
aVefldn_news
p222
aVmarie04225
p223
aVyoyomowakea
p224
aVziziinori
p225
aV5aaa6
p226
aVCpaYann
p227
aVIkramIcp
p228
aVjohnkiss5
p229
aVlakshmitmadhu
p230
aVInna_ro_fan
p231
aVreycar7
p232
aVloungebuddy
p233
aVpsyclopzzz
p234
aVinfoplaynet1
p235
aVawalaa5
p236
aVLaredoBanda
p237
aVtitocapote1990
p238
aVtim_e_taylor
p239
aVHabibiCelso
p240
aVTSMDLTD
p241
aVsuibingyuegmail
p242
aVangel777ricar
p243
aVsteady1234567
p244
aVmsankoh1
p245
aVDonnaCrawford
p246
aVna3nou3a11
p247
aVnrkdz
p248
aVLisa32W
p249
aVsbaloch976
p250
aVmy_baby765
p251
aVLindscooopeR
p252
aVDMilliner1
p253
aVfullnguyen
p254
aVbrowngator7
p255
aVhengry_hankman
p256
aVmypahapohyde
p257
aVyellobox
p258
aVXdebbiex42Clark
p259
aVandycopland
p260
aVellerzcookie
p261
aVraj22tweet
p262
aVCraigDunEideann
p263
aVwe6568_john
p264
aVMuddassarAli86
p265
aVSyPhaty
p266
aVdidier93440
p267
aVf04746485
p268
aVPaidShit
p269
aVTomppa571
p270
aVminecraft286
p271
aVAlexandr_wtf
p272
aVjettionahicks
p273
aVJOBMORENO2
p274
aVtimngwena
p275
aVjoe_vassily_09
p276
aVPrasanModasia
p277
aVchrispadfield
p278
aVescallaDigital
p279
aVNon666420
p280
aVlifeiqifen
p281
aVfunnystuff111
p282
aV340Simona
p283
aVcurtis_hc
p284
aVOrla_Shields
p285
aVZabrinaBlanco
p286
aVUpworkUK
p287
aVDeclanTalbert
p288
aVgbabystoroz2
p289
aVtaproy0
p290
aVMortal16Nelson
p291
aVLeruaru
p292
aVshankar27ravi
p293
aValex_rodriguezt
p294
aVvalenzuela1125
p295
aVDannyFranks1
p296
aVJakupHans
p297
aVguidewoody
p298
aVrenzzo07
p299
aVkylehudson
p300
aVingridiris2
p301
aVTresab2Brockman
p302
aViliana4martinez
p303
aVQEDLtd1
p304
aVMadajMediaLive
p305
aVshopzentail
p306
aVKathrynHayhurst
p307
aVQuietExplosion
p308
aVNgchesarShady
p309
aVthesgtdapper
p310
aVrocsiiiroxana
p311
aVhypist
p312
aVInteroute
p313
aVScalabilityUK
p314
aVgfrengss
p315
aVWeald_Pro_IT
p316
aVrosicky3fan
p317
aVMollychano
p318
aVmotiontyres
p319
aVFenderPfender
p320
aVlplatebigcheese
p321
aVaulaviajera
p322
aVAmadouAtraore
p323
aVbriefmarilyn
p324
aVEliteHacka
p325
aVSkyFallCarroll
p326
aVatarova
p327
aVPaulBelouin
p328
aVTrainTheNation
p329
aVhichame87326146
p330
aVusahoe1
p331
aVPhotocritic
p332
aVprose
p333
aVjmhredsox
p334
aVjamesconellyaho
p335
aVBunsxaii
p336
aVmattdixonpatent
p337
aVSimpl
p338
aVGIUPHQ
p339
aVdiaz_vick
p340
aVsamcnix
p341
aV_av23
p342
aVUKTelesales
p343
aVKathyre58178056
p344
aValdyner2
p345
aVViceyNeyah
p346
aVantonio75585347
p347
aVrichard87459825
p348
aVarteges
p349
aVgerald_speers
p350
aVrishi_chowdhury
p351
aVLensThru
p352
aVcheschirecat1
p353
aV_mindbot
p354
aVjoaopaulowapc
p355
aVSambhu1963
p356
aVSurens
p357
aVcolombinavadia1
p358
aVjingbo_wang
p359
aVMarkusJura
p360
aVzhraa_daame22
p361
aVbaddth
p362
aVMwembeResort
p363
aVbianca_han
p364
aVs_stingo
p365
aVdrTkachev
p366
aVoannasoro
p367
aVafatur_lindswel
p368
aVkeira05546283
p369
aVmmbennett_63
p370
aVStathakis_Sp
p371
aVtilapia
p372
aVsnana691
p373
aVBudbBud
p374
aVdoimoidong
p375
aVmarckoska
p376
aVthenitai
p377
aVbulent_tezcan
p378
aVrtkaleta
p379
aVpaulmassey
p380
aVMontreal_AI
p381
aVMobileaders
p382
aVvastrm
p383
aVianwalters
p384
aVth0masschindler
p385
aVlmjabreu
p386
aVITJOBSHWSELECT
p387
aVEversnapapp
p388
aVStephenRoyPage
p389
aVr3trosteve
p390
aVmany_to_many
p391
aVkingrolo
p392
aVSilverleafTeam
p393
aVMichaelEHowe
p394
aVregina_hack
p395
aVDaleWeedman
p396
aVdansgalaxy
p397
aV4McP
p398
aVJonathanSnade
p399
aVRainspell170
p400
aVHorshamLiving1
p401
aVShaktiTrails
p402
aVSymGfx
p403
aVMichelBartz
p404
aVTomasRE
p405
aVmc_mc_mc
p406
aVKissmetrics
p407
aVDoggiesAmigos
p408
aVjoodoo9
p409
aVleemorgenroth
p410
aVWatsonsuk
p411
aVios_AppDevloper
p412
aVmisra98
p413
aVneilbachelor
p414
aVMikaiyla2
p415
aVContracting_PS
p416
aVgggalt
p417
aVDerejeLemma2
p418
aVLEDWear
p419
aVWomensEdgeMag
p420
aVDayTraderBot
p421
aVshashank11sharm
p422
aVTheFxSchool
p423
aVJonasArmyUK
p424
aVhayes_maker
p425
aVFullalove1
p426
aVToshikoromi
p427
aVuk_engineerjob
p428
aVkelsonpk
p429
aVFinraiser
p430
aVanneminta
p431
aVIank2702
p432
aVTharpy_RPCC
p433
aVscsmith
p434
aVhenrycole
p435
aVHDipIndustry
p436
aVlondon_web
p437
aVNGLeaders
p438
aVmbesto
p439
aVamirmc
p440
aVChiaLiChien
p441
aVsiliconrounduk
p442
aVThePurpleBeach
p443
aVSeedirApp
p444
aVdhirendsouza
p445
aVwangwang27
p446
aVtripdes
p447
aVQualifiedOpps
p448
aVrhs
p449
aVjordanglee
p450
aVJoshuaWohle
p451
aVNCCGroupWebperf
p452
aVGreatestPitch
p453
aVoliverwaters
p454
aVmohan2020
p455
aVFastGrowthClub1
p456
aVnatalia_novaya
p457
aVLanacaUK
p458
aVstarcraftbabe
p459
aVDevWeeklyOnline
p460
aVJoolMedia
p461
aVBillionDollarID
p462
aVParabolicVC
p463
aVjbrazao
p464
aVbogdan_orafe
p465
aVSparkTechTalk
p466
aVbasil_monkey
p467
aVLean_London
p468
aVBrat13
p469
aValvin_chang
p470
aVNehabhasin9
p471
aVMrChrisEllis
p472
aVjamesdiamond212
p473
aVrichmarr
p474
aVDanielleMorrill
p475
aVjeremylarsson
p476
aVGlebBudman
p477
aVJumpStartInc
p478
aVFakeLaunchGram
p479
aVtedgonder
p480
aVStuartGrovescom
p481
aVstrikingly
p482
aVPaulFord
p483
aVViktorasJucikas
p484
aVdeskpro
p485
aVJWHennessey
p486
aVgverdian
p487
aVcseltd
p488
aVquoterobot
p489
aVKarensrambles
p490
aVjmck202
p491
aVminxymoggy
p492
aVInmeraDotcom
p493
aValexpchin
p494
aVsuren
p495
aVIsha_Allessanda
p496
aVTOPLD
p497
aVGena_Northingto
p498
aVcolemansec
p499
aVBUDDIY_DJ
p500
aVGemmaAtkins6
p501
aVgdb_
p502
aVhimerzi
p503
aValister_b
p504
aVTheChatTeam
p505
aVMOAIFA1
p506
aVandrades
p507
aVMWaschnig
p508
aVmiramare_me
p509
aVScobleizer
p510
aVleigh_lou
p511
aVJPScoopZ
p512
aVrmichalo
p513
aVVentureandAngel
p514
aVcraig_montuori
p515
aVsmuralha
p516
aVLaunchGram
p517
aVSteveShopDirect
p518
aVGenfiKirkland
p519
aVQuantifiedMind
p520
aVCarTrekDagsboro
p521
aVAlanForsyth4
p522
aVbhaskarakurup
p523
aVt1mwilliams
p524
aVryaneshea
p525
aVfirst1kco
p526
aVsgrove
p527
aVSpencepub
p528
aVchrisFnicholson
p529
aVTechStartupJobs
p530
aVszelvenskiy
p531
aVhelen_tech_sf
p532
aVeranation
p533
aVgferrari
p534
aVoasoner
p535
aVwebmat
p536
aVsparkycollier
p537
aVstocktronica
p538
aVcry0sis
p539
aV4mrsp
p540
aVbeaugunderson
p541
aVRobbie
p542
aVRebounty
p543
aVJGasteen
p544
aVPowwownow
p545
aV121prodataLtd
p546
aVbecky_kimber
p547
aVEntrepreneursSU
p548
aVmgmilcher
p549
aVmianua
p550
aVYFAccelerator
p551
aVbizoogo
p552
aVstartuplist
p553
aVJobmentoDotCom
p554
aVthomasgregg
p555
aVviniciusfbm
p556
aVopensourceroles
p557
aVKoolMediaUK
p558
aV0nko
p559
aVqiqing
p560
aVpilif
p561
aVmychari
p562
aVPRO2ECT
p563
aVGuruTrax
p564
aVcurvvdTech
p565
aVdpg
p566
aVHerveHumbert
p567
aVgamemasterARI
p568
aVvinuthomas
p569
aVJamesStevens84
p570
aVLyleMacau
p571
aVSeanClark
p572
aVimamchishty
p573
aVYocuda_
p574
aVyReceipts
p575
aVoliviaserenelee
p576
aVjontang
p577
aVkubisha
p578
aVonehumanunit
p579
aVWuZhejun
p580
aVWebitCongress
p581
aVEMSDesignPrint
p582
aVjaredhanson
p583
aVmeshsensors
p584
aVYoungStartUpTal
p585
aVv3yron1
p586
aVdigicrits
p587
aVJeff38285407
p588
aVUSDC_tcarson
p589
aVcreativexplorer
p590
aVpaaswatch
p591
aVdan_hopwood
p592
aVscdoshi
p593
aVOfficialYHP
p594
aVAlbedoFulldome
p595
aVJoomAvatar
p596
aVkyleazevedo
p597
aVmarcog
p598
aVsohailprasad
p599
aVEvergreenSalon
p600
aVhaxplorer
p601
aVJezChatfield
p602
aVTinyEarsTech
p603
aVJeremyCampbell
p604
aVXcellPartners
p605
aVkevinmarks
p606
aVdmmalam
p607
aVcjroebuck
p608
aVSpottedAndroid
p609
aVpHzBox
p610
aVfusecatalysts_
p611
aVlozzul
p612
aVBriqsApp
p613
aValagu
p614
aVbulklabs
p615
aVSpireGatwick
p616
aVczechmateuk2
p617
aVMasterFrolicker
p618
aVamar_ashour
p619
aVyeshey89jr
p620
aVstulogy
p621
aVSponsureJonny
p622
aVantz29
p623
aVTw4tTweets
p624
aVukd1
p625
aVkatgleason
p626
aVCanahm3t
p627
aVSweetHomeChezJJ
p628
aVTSPropertySolut
p629
aVjgarnham
p630
aV7mealsaday
p631
aVBubblegumLondon
p632
aVl1mes
p633
aVAgileTalent
p634
aVstevensdrake
p635
aVboxiv
p636
aVvip2goapp
p637
aVbespokeleads
p638
aVBritWebLtd
p639
aVJosephDFox
p640
aVisanakielny
p641
aVjasonea
p642
aVblacktar
p643
aVSmartIdeaStore
p644
aVCopypastaa
p645
aVIanHayward
p646
aVAdamGering
p647
aVrolandal
p648
aVimgfave
p649
aVHolgentech
p650
aVConstantWebHost
p651
aVTamimAlif
p652
aVmrfalbo
p653
aVkimbertles
p654
aVstartupsceneuk
p655
aVDWEnterprises
p656
aVgoplayharder
p657
aVvannaasymonds
p658
aVDavidMKingsland
p659
aVshoozilla
p660
aVfhr
p661
aVkosuMobile
p662
aVheatonjb
p663
aVmatthewogston
p664
aVJayGeraghty
p665
aVLoradrw
p666
aV6outof7TheMovie
p667
aVtompappalardo
p668
aVcarrolltrust
p669
aVfiretruck3d
p670
aVbenpjohnson
p671
aVPeterjmit
p672
aVGalacticCouture
p673
aVBMWRestorations
p674
aVAudiRestoration
p675
aVvwwest
p676
aVPartyBoatFilm
p677
aVahamoment
p678
aVYoung_Ents
p679
aVaelxnguyen
p680
aVAndyVeal
p681
aVtwb01
p682
aVyankeeinlondon
p683
aVwalraj
p684
aVrcs60
p685
aVScalabilityMeet
p686
aVclivewalker
p687
aVpyates73
p688
aVTCThunder
p689
aVmdcapadvisors
p690
aVhackerjobsuk
p691
aVRanchoSantaFeIT
p692
aVBespokeSuitsLtd
p693
aVbretwier
p694
aVtaxiroute
p695
aVLeonFearon
p696
aVabdulkhan
p697
aVTloonen
p698
aVWynell_Buquo
p699
aVMattDulski
p700
aVbenitamatofska
p701
aVtrajsingh
p702
aVKesThygesen
p703
aVSimoPopArt
p704
aVRazorLAB
p705
aVfamilyhistorysh
p706
aVpublicsquare
p707
aVmrcurd
p708
aVtrustmico
p709
aVDoingBusinessFo
p710
aVSteveTSouza
p711
aVjohanjanssens
p712
aVAMPRealEstate1
p713
aVAngelMeetup
p714
aVJessInBlue
p715
aVbilawalhameed
p716
aVlabbye
p717
aVidealinterface
p718
aVcoderkeith
p719
aVandreweades
p720
aVafgflameguard
p721
aVharry_chow
p722
aVNice1
p723
aVpush_gaming
p724
aVTovepalin
p725
aVConnorRobertsUK
p726
aV_samdb
p727
aVWebSummitSeries
p728
aVNeoshappy
p729
aVhost_analytics
p730
aVVirtualTutors
p731
aVWebSummit
p732
aVfeeliipsoares
p733
aVozzy_dave
p734
aVmchodankar
p735
aVmoodpanda
p736
aVbrightontour
p737
aVtheseoroom
p738
aVjakegreenwood
p739
aVJonahLupton
p740
aVmadeiracloud
p741
aVFredSakai
p742
aVbitcircus
p743
aVeProCfo
p744
aVTen05Hire
p745
aVExtechuk
p746
aVbaskager
p747
aVOttoAriadne
p748
aVmohammed_reda91
p749
aVEmpacadoBlog
p750
aVSusannahRayner
p751
aVharveytoro
p752
aVgareco
p753
aVTheAgileLeader
p754
aVltrgoddard
p755
aVwebandphp
p756
aVForexTirgus
p757
aVThe_Briefing
p758
aVFastHouse_Sale
p759
aVYooCollect
p760
aVtechsunny
p761
aVrlanzara
p762
aVczzpr
p763
aVFreshStart8
p764
aVSeattleSmallBiz
p765
aVemigue
p766
aVbetsyweber
p767
aVEuropeLinkLtd
p768
aVRocketScience4
p769
aVGeo_Stig
p770
aVtop100uk
p771
aValexparish
p772
aVTamintheValley
p773
aVInstafamous
p774
aVbeatrizcardona
p775
aVdoeswhat
p776
aVKrissyQuebec857
p777
aVGuildCareForum
p778
aVianohalloran
p779
aVahawke
p780
aVrose_jeantet
p781
aVeroze1
p782
aVGCWeiner
p783
aVpiersm
p784
aVohemeng_baah
p785
aVTrevorOverall
p786
aVBarabaraSantosc
p787
aVheinrichdsf
p788
aVMarisha_kravez
p789
aVMindingsStu
p790
aVskmbr
p791
aVnatts
p792
aVCorpGovLawyer
p793
aVjrusinow
p794
aVreshmi200718
p795
aVMy_natour
p796
aVadrianhula
p797
aVNikinCor
p798
aVBillMorrow
p799
aVTraceyAllum6065
p800
aVAndresRoberts
p801
aVocsussex
p802
aVdominiccampbell
p803
aVFutureGov
p804
aVtomokas
p805
aVAppAmour
p806
aVolesovhcom
p807
aVMcKenson71
p808
aVhawkda
p809
aVsophontrack
p810
aVjfhodgkinson
p811
aVashleyford
p812
aVInVigorLawGroup
p813
aVvillagebutchers
p814
aVasblawuk
p815
aVtazmaniax
p816
aV_benji
p817
aVgnublade
p818
aVakhilgeo
p819
aVDamianAinsley
p820
aVMikeBollan
p821
aVzanectech
p822
aVLMeirosu
p823
aVTMPaccountancy
p824
aVFrediaMalkanthi
p825
aVcyberroadie
p826
aVchristophermu
p827
aVpartnered
p828
aVAngelSquare
p829
aVslaygome
p830
aVERoundtable
p831
aVHackerNewsPaper
p832
aVOnlineAbsence
p833
aVChiliData
p834
aVdonna_crawford
p835
aVTheVunterSlaush
p836
aVkoomerang
p837
aVeddmc
p838
aVraw_delights
p839
aVstevewillbe
p840
aVJimmyAlec
p841
aVmarapas
p842
aVtanyamonteiro
p843
aVNigelTPacker
p844
aVbenchmarkingIT
p845
aVanthonyngmonica
p846
aVottolini
p847
aValexnarra
p848
aVboggisre
p849
aVchirdeep
p850
aVfollowmefm
p851
aVMitchelLake
p852
aVFrancisNamouk
p853
aVamirhhz
p854
aViCapGroup
p855
aVNicTaylor4
p856
aVartist2005
p857
aVcoderholic
p858
aVDukesHeadCDowns
p859
aVFuzzyMeme
p860
aVATERecruitment
p861
aVreelyadam
p862
aVmarcoslavorato
p863
aVHonkers1
p864
aVBannykh
p865
aVwilliamfischer
p866
aVInvestmentReady
p867
aVr4vi
p868
aVResuMiniMe
p869
aVBale_Tek
p870
aVECUKBrand
p871
aVFlorianHarkort
p872
aVdalailama_hp
p873
aVpitchup
p874
aVcoolnik07
p875
aVchrisbeach
p876
aVClotted
p877
aVnew_nomad
p878
aVCollateToDonate
p879
aVChantelUdhwani3
p880
aVDamsonCloud
p881
aValexjonit
p882
aVBognorDanceFan
p883
aVSam__Bruce
p884
aVYannickCarrasco
p885
aVJamesChaseJobs
p886
aV1MonthProject
p887
aVSeedForumLondon
p888
aVKristiInLL
p889
aVPatAJones1
p890
aVmanuel_fuertes_
p891
aVaptjongeren
p892
aVnetkonsults
p893
aVeptune
p894
aVSpring68
p895
aVRecWorks
p896
aVjustinbrister
p897
aVkrystinavnarms
p898
aVthomas_coleman
p899
aVInventCreative
p900
aVBusinessSussex
p901
aVChimeVentures
p902
aVjcwatsonfive
p903
aVthomas_baldwin
p904
aVbluesmoon
p905
aVcmercier
p906
aVodelette21
p907
aVmarksbren
p908
aVUKITA_UK
p909
aVPatrickSocha
p910
aVtiagotcorreia
p911
aVvkesireddy86
p912
aVELISVANIAB
p913
aVLinkOutApp
p914
aVJamesEdwards30
p915
aVThe_Blue_Desert
p916
aV_iaini
p917
aVConsultingLeads
p918
aVbranderbull
p919
aVLinseyWillaford
p920
aVcharlie_frantow
p921
aVgeorginaangele
p922
aVProfitnetUoB
p923
aViTech_IT_Jobs
p924
aVzefi
p925
aVphilipreichen
p926
aVnpyett
p927
aVShoseki
p928
aVstevepurkiss
p929
aVLatestTopTen
p930
aVTravelDNAco
p931
aVvivigive
p932
aVsueohare
p933
aVLouisMandem
p934
aVtimrogers
p935
aVMaysCreative
p936
aVMercury_app
p937
aVycldn
p938
aVsoldermask
p939
aVjoehas
p940
aVfounding
p941
aVPremierMarket
p942
aVUCLEnterprise
p943
aVgeoffwatts
p944
aVBilliChamber
p945
aVpaultoben
p946
aVJonathanRCort
p947
aVlisaweiner
p948
aVMonExTel
p949
aVFactoringPros
p950
aVrevitaliseu
p951
aVadi_benari
p952
aVAssocBizMentors
p953
aVTechBlueInc
p954
aVg2i
p955
aVtaxilo_de
p956
aVkerron
p957
aVrangerj
p958
aVBungardandSons
p959
aVtoniojj
p960
aVdaveslocombe
p961
aVmstafford
p962
aVcloudcontrolled
p963
aVTender_Winner
p964
aVTheof
p965
aVrubyxxcube
p966
aVSebhempstead
p967
aVtomontour
p968
aVRayHivoral
p969
aVCreative_Sussex
p970
aVAlexxStewart
p971
aVstackblaze
p972
aVChesterSinclare
p973
aVPivotlIQ
p974
aVworkinstartups
p975
aVCapeDrastis
p976
aVoderau
p977
aVroodave
p978
aVBrianInkster
p979
aVbtonstripped
p980
aVGeeksGetPaidCOM
p981
aVecmodeyo
p982
aVAdamClennell
p983
aVStartUpCalendar
p984
aVcorecoders
p985
aVbcrecworks
p986
aVquigleyreport
p987
aVjason_whitmire
p988
aVSehrchDotCom
p989
aVaacolman
p990
aVDigital_Social_
p991
aVmikebutcher
p992
aVStartuprecroot
p993
aV_ryangilbert
p994
aVxmakinatek
p995
aVskilio
p996
aVTechCityUK
p997
aVkyleNash
p998
aVehnforum
p999
aVROKZANDER
p1000
aVselfhacking
p1001
aVtodhq
p1002
aVPearlym95
p1003
aVwanderfly
p1004
aVthe_Swag_
p1005
aVTheCookieCrunch
p1006
aVLoveHateTravel
p1007
aVCalumBrannan
p1008
aVBasepoint_Crwly
p1009
aVbeckypatmore
p1010
aVtesmacp
p1011
aVollidotcom
p1012
aVLifeSort
p1013
aVHorleychamber
p1014
aVRichGedney
p1015
aVstartupintel
p1016
aVpemo
p1017
aVWouterBlok
p1018
aVSierrab37
p1019
aViainh1
p1020
aVPersonal
p1021
aVBitcoinForum
p1022
aVDavidHoworth
p1023
aVkiran_sm
p1024
aVbejannim
p1025
aVSarahNicolas1
p1026
aVpaulsheperia
p1027
aVwilficouk
p1028
aVMayfairproperty
p1029
aVrobbiehudson
p1030
aVSelfsuccess
p1031
aVKrafty_Worthing
p1032
aVWebbyIntouch
p1033
aVAppShed
p1034
aVmartinrigby
p1035
aVAdamJWynne
p1036
aVwouterstrauven
p1037
aVtim_dempsey
p1038
aVLindaSecretan
p1039
aVsteve_e
p1040
aVUKcontactcentre
p1041
aVginagardiner
p1042
aVpitchiedev
p1043
aVtechbookers
p1044
aVsigh_of_relief
p1045
aVvistagespeakers
p1046
aVBHTFlights
p1047
aVlukehford
p1048
aVimranghory
p1049
aVHotelBlogs
p1050
aVQwerly
p1051
aVdetourgreg
p1052
aVKSuppiah
p1053
aVnorrisnode
p1054
aVTrustedLeader
p1055
aVstorey7
p1056
aVamponsahdoris
p1057
aVSuccessBuilder1
p1058
aVGavin_Sidhu
p1059
aVRowplatt
p1060
aVnephel_
p1061
aVsimonbayly
p1062
aVBedAndFed
p1063
aVkevinelong
p1064
aVMyWorldDesk
p1065
aVcasecheck
p1066
aVtobyparkins
p1067
aVgjatweet
p1068
aVcounsellor001
p1069
aVUKopendata
p1070
aVSEORocksIza
p1071
aVGood_Connection
p1072
aValpeshdoshi
p1073
aVrobfitz
p1074
aVdevopstom
p1075
aVTechmeetups
p1076
aVbobbywatson
p1077
aVqubulus
p1078
aV__Entrepreneurs
p1079
aVSyncSpend
p1080
aVMRLsconductors
p1081
aVrealdataware
p1082
aVwasdaiteled
p1083
aVfyrfjd0bvue
p1084
aVacorebll
p1085
aVjonoandre
p1086
aVJ_Mendelssohn
p1087
aVoctoberclub
p1088
aVW3VBlog
p1089
aVetspartnership
p1090
aVgreggihenyen
p1091
aVAlkiraVAs4u
p1092
aVDylanMaryk
p1093
aVtaskleader
p1094
aVpitchieapp
p1095
aVswanify
p1096
aVmagicwebco
p1097
aVawhitehouse
p1098
aVMenteeor
p1099
aVbasepoint_KO
p1100
aVStickyboard
p1101
aVStefanW
p1102
aVLouShackleton
p1103
aVleotong
p1104
aVLucy_Watt
p1105
aVfilce
p1106
aVclothing01
p1107
aVNews12kx
p1108
aValexbuttle
p1109
aVtagbento
p1110
aVstephenhau
p1111
aVleemanoflancs
p1112
aVArkLeisure
p1113
aVmanojranaweera
p1114
aVOliBarrett
p1115
aVpocketvillage
p1116
aVtandp_uk
p1117
aVastutejobs
p1118
aVduedil
p1119
aVgrimbold
p1120
aVventure_radar
p1121
aVsamengland
p1122
aV99diseases
p1123
aVrassami
p1124
aVtechpitch4pt5
p1125
aV2_Pears
p1126
aVgeconetwork
p1127
aVsiliconglen
p1128
aVmicrypt
p1129
aVladybracknell66
p1130
aVvimaltripathi
p1131
aVimhelenj
p1132
aVExperienceCIC
p1133
aVphpfog
p1134
aVHNLondon
p1135
aVrdkgroup
p1136
aVtandp_ventures
p1137
aVZuzana_Zwiebel
p1138
aVmuchbetterAdven
p1139
aVCraigGrimes
p1140
aVJannKleen
p1141
aVVCC_2017
p1142
aVlondonbarter
p1143
aValex_nimmo
p1144
aVthepratperch
p1145
aVCamperNHiker
p1146
aVDigicave
p1147
aVBRAVOBizEvents
p1148
aVswombat
p1149
aVYellowFrogUK
p1150
aVLAUNCH
p1151
aVJames_carwow
p1152
aVJanSimpson
p1153
aVlonelyplanet
p1154
aVecomate_eu
p1155
aVthelaunchpaduk
p1156
aVdavidsoskin
p1157
aVMatthew_Hepburn
p1158
aVScott_Allison
p1159
aVTopDish
p1160
aVdom_mason
p1161
aVsamtyers
p1162
aVH2_Clubs
p1163
aVtop10latest
p1164
aVJasonDemant
p1165
aVMaxineSheppard
p1166
aVrfwatson
p1167
aVVicky_Welstead
p1168
aVsarrgent
p1169
aVsalilsp
p1170
aVtopdishinc
p1171
aVscottrutherford
p1172
aVbmagierski
p1173
aVfrankienation
p1174
aVpicturetheuk
p1175
aVeventalpha
p1176
aVSimplyMonetize
p1177
aVcameronwilding
p1178
aVJuliaChanteray
p1179
aVxavdla
p1180
aVeastkentscience
p1181
aVunstoppableS
p1182
aVgiorgioo
p1183
aVal1tred
p1184
aVbiztechanalysis
p1185
aVbuffer
p1186
aVTwimbow
p1187
aVJuliaqed
p1188
aVsbrecworks
p1189
aVlcaffarri
p1190
aVubicabs
p1191
aVBen348
p1192
aVfullscreenphoto
p1193
aVPiranPartners
p1194
aVukbusinessvoice
p1195
aVLuxuryTravelLtd
p1196
aVTravelport_DB
p1197
aVTripbud
p1198
aVUnanchor
p1199
aV3en
p1200
aVDisruptLondon
p1201
aVmarkwilliams0n
p1202
aVGrantHemple
p1203
aVjustgodirect
p1204
aVthemire
p1205
aVdansingerman
p1206
aVlatifhorst
p1207
aVworkforpie
p1208
aVadavengers
p1209
aVfarhanlalji
p1210
aVFlowJob_dot_com
p1211
aVbenfwirtz
p1212
aVjenoneal
p1213
aVGWLaRosa
p1214
aVVyconic
p1215
aVmarcode
p1216
aVHelenWilshaw
p1217
aVimmerseintech
p1218
aVclearerpartners
p1219
aVseedcamp
p1220
aVjamescun
p1221
aVfishbowlem
p1222
aValexbainbridge
p1223
aVpremisenetwork
p1224
aVtortugasl
p1225
aVnickwsmith
p1226
aVconnellchris
p1227
aVMartinDunford
p1228
aVmsmcoaching
p1229
aVAnneKScott
p1230
aVinrepose
p1231
aVchefmxdowling1
p1232
aVscreenpop
p1233
aVTFMCentre
p1234
aVparkatuk
p1235
aVsamsethi
p1236
aVtiacarr
p1237
aVwarkmalsh
p1238
aVgeckoboard
p1239
aVJames_Mayes
p1240
aVrtm
p1241
aVjoelgascoigne
p1242
aVAndreaOCarroll
p1243
aVtjp
p1244
aVnetworkbarefoot
p1245
aVJeffreysHenry
p1246
aVmyOnePage
p1247
aVGamingExchange
p1248
aVShippeyPR
p1249
aVKerrieDormanLtd
p1250
aVStartupTopTips
p1251
aVFailWise
p1252
aVNHantChamber
p1253
aVredhead77
p1254
aVPullNews
p1255
aVBBC_HaveYourSay
p1256
aVnigelb22
p1257
aVthetravelword
p1258
aVicelandinspired
p1259
aVIUK_BRIGHTON
p1260
aVcruisedealsbtd
p1261
aVGrayumIan
p1262
aVLBA_investment
p1263
aVloughshore
p1264
aVSupportLocalSA
p1265
aVAMauiBlog
p1266
aVzeshanghory
p1267
aVSaintSal
p1268
aVnovalign
p1269
aVOpalFamOffice
p1270
aVmaxthelion
p1271
aVtravel_agents2
p1272
aVfishbowlhq
p1273
aVrecruithurst
p1274
aVstephenchapman
p1275
aVubispar
p1276
aVBSSMinvestors
p1277
aVStartupChron
p1278
aVRedLionRedLion
p1279
aVWebinfinitycom
p1280
aVTechHub
p1281
aVhommii
p1282
aVJanetParkinson
p1283
aVinfoseccrow
p1284
aVLifeScoop
p1285
aVsoakedtv
p1286
aVmarkhickman
p1287
aVWebSeed
p1288
aVrichardstubbs
p1289
aVstuarthoneysett
p1290
aVkenhorn
p1291
aVAlecMuffett
p1292
aVajkavanagh
p1293
aVeastone_e1
p1294
aVlawrencejob
p1295
aVzoepeden
p1296
aVHeatherCoull
p1297
aVidworkshop
p1298
aVsensiblecodeio
p1299
aVDiyanaAlcheva
p1300
aVCAXophile
p1301
aVTheWMCo
p1302
aVkemp_harper
p1303
aVeOfficeLondon
p1304
aVPierMucelli
p1305
aVStartupUK
p1306
aVharscoat
p1307
aVjoncousins
p1308
aVRSAFCouncil
p1309
aVMentorwell
p1310
aVAdrianAshton2
p1311
aVLinkedGov
p1312
aVHubSpotPlatform
p1313
aVmusketalife
p1314
aVPeterTupker
p1315
aVMaurizio_Pilu
p1316
aVlonightowls
p1317
aVjimsims100
p1318
aVpremasagar
p1319
aVevanyares
p1320
aVPeterCroke
p1321
aViamSiamiam
p1322
aVMFM_Blogging
p1323
aVAngelCapital
p1324
aVmatthiasdaues
p1325
aVsaldavey
p1326
aVtom_sloan1
p1327
aVTripbod
p1328
aVnuageit
p1329
aVteamly
p1330
aVTwitRides
p1331
aVddanscreamos
p1332
aVStCHospice
p1333
aVJenny_McG
p1334
aVCorineLeclerc
p1335
aVjohnniemoore
p1336
aVbjwebb67
p1337
aVharryrickards
p1338
aVfdousek
p1339
aVhadleybeeman
p1340
aVmaxwellstjohn
p1341
aVandykiteman
p1342
aVBaskers
p1343
aVTWiSTldn
p1344
aVdanielmorris
p1345
aVsameeredsdfxfgd
p1346
aVYRSBrighton
p1347
aVrebeccacaroe
p1348
aVoxinnovation
p1349
aVUKDEA
p1350
aVMDHUB
p1351
aVTopSwandotcom
p1352
aVglongfoot
p1353
aVmakemedia
p1354
aVmintelnews
p1355
aVkatila
p1356
aVmarkcreaser
p1357
aVdanversbaillieu
p1358
aVicrossing_uk
p1359
aVmathiasbaert
p1360
aVSethRussell
p1361
aVpepperneck
p1362
aVjrides2010
p1363
aVsurreysussex
p1364
aVWeald_Mike
p1365
aVglobalimmersion
p1366
aVbrightonchamber
p1367
aVCutlassTV
p1368
aVcaddster
p1369
aVLegalFormsFree
p1370
aVTalentScout_NEA
p1371
aValiafshar
p1372
aVhnshah
p1373
aVnick_watt
p1374
aVdriwatson
p1375
aVACCURACYMKTG
p1376
aVBDCWilding
p1377
aVncameron
p1378
aVInnovatrs
p1379
aVcheckbacklinks
p1380
aVmpesce
p1381
aVgeoffarnold
p1382
aVMBEBrighton
p1383
aVFonehacks
p1384
aVDezineforce
p1385
aVSitkiGelmen
p1386
aVChrisHTTarget
p1387
aVrosiesherry
p1388
aVtalkweb
p1389
aVnicktong
p1390
aVadriana872
p1391
aVdavebriggs
p1392
aVuniquejosh
p1393
aVzambona
p1394
aVChezWood
p1395
aVrobheeley
p1396
aVraynbowchasert
p1397
aVGraphicDesignGB
p1398
aVangelnetworkuk
p1399
aVDavidVWH
p1400
aVclarinette02
p1401
aVlinkstream_app
p1402
aVTunglerocks
p1403
aVNirenNaidoo
p1404
aVonelastsoulks
p1405
aVchidating
p1406
aVStartupNation
p1407
aVJackyMisson
p1408
aVRhodriAlexander
p1409
aVBrightStarSport
p1410
aVjuspearls105
p1411
aVBONTIAMOAKO
p1412
aVPaulSBadmnton
p1413
aVclermontdirect
p1414
aVScarletNews
p1415
aVgrahamscott
p1416
aVsinc_innovation
p1417
aVjot
p1418
aVNACUE
p1419
aVMike_Biddle
p1420
aVEENSW
p1421
aVjonathanlea
p1422
aVGrahamHurdle
p1423
aVgrundeinkommenF
p1424
aVjp_england
p1425
aVCentralHotelV
p1426
aVVrouwHolle
p1427
aVdailyofferuk
p1428
aV4NYeovil
p1429
aVForburyInvest
p1430
aVcanvasinfo
p1431
aVfeelgood_tweets
p1432
aVWaveCloudUK
p1433
aVDifferenceEngin
p1434
aVsavingsadvice
p1435
aVGoingGlobalBeta
p1436
aVtradegovuk
p1437
aVtonytreacy1
p1438
aVcybahous
p1439
aVthinkgareth
p1440
aVmattalder
p1441
aVSiConroy
p1442
aVWominBiz
p1443
aVdeltatheta
p1444
aVtonkazg
p1445
aVProjectGiftED
p1446
aVmpm2ltd
p1447
aVne0
p1448
aVgetmoreclarity
p1449
aValisonrbcm
p1450
aVBrightonNewsJo
p1451
aVbOpatHiji
p1452
aVFaridUAhmed
p1453
aVUKMediaMajor
p1454
aVhootsuite
p1455
aVbanwellbrown
p1456
aVLWgifts
p1457
aVstephenwrks
p1458
aVRajAnand
p1459
aVdavid_bott
p1460
aVSharp_NoteM
p1461
aVIggy240
p1462
aVrichturnbull
p1463
aVLeoHardy
p1464
aVjassicajhones
p1465
aVjohnt10
p1466
aVst_alegis
p1467
aVEvansIPLaw
p1468
aVmaxwright
p1469
aVnick_appleyard
p1470
aVyourbusinessmap
p1471
aVgileshawkins
p1472
aVDaveHalliwell
p1473
aVJesseTheDev
p1474
aVMortgageFeeFree
p1475
aVandrew_gill
p1476
aVgdbizawards
p1477
aVsimonbooth
p1478
aVJeremySpiller
p1479
aVkanderson337
p1480
aVcomogard
p1481
aVcubeworks
p1482
aVe_cigsUK
p1483
aVnetincomecash
p1484
aVIdealPitch
p1485
aVViralogy
p1486
aVDigital_Depot
p1487
aVmartinmelconian
p1488
aValexcowell
p1489
aVangelinvestor_
p1490
aVmentornetuk
p1491
aVBernlank
p1492
aVgrahamsherry
p1493
aVHoangTuDauMat
p1494
aVnorthwind_dan
p1495
aVlightofgoldpr
p1496
aVChrisKaday
p1497
aVrajdey
p1498
aVWalkandtravel
p1499
aVGammaMedia
p1500
aVpreview_says
p1501
aVstartupbooster
p1502
aVWiredSussex
p1503
aVHoangTuDauMatx
p1504
aVAngelsDen
p1505
aVolinaqian
p1506
aVRichSmith0891
p1507
aVBusinessZone
p1508
aVnickbroom
p1509
aVTheOmniMarket
p1510
aVAndyCockburn
p1511
aVbenwerd
p1512
aVhuangchunfeng
p1513
aVLiliMayBaby
p1514
aVSofia61o8x
p1515
aVRuiqiY
p1516
aVwindowblindsuk
p1517
aVAmandaGeel
p1518
aVEmanueleTha
p1519
aVbeisgovuk
p1520
aVDavidMelling
p1521
aVTandSofWorthing
p1522
aVskrinsky007
p1523
aVKrstbk4
p1524
aVbrian_mcguffey
p1525
aVXavierAdam
p1526
aVtimfifield
p1527
aViBussNet
p1528
aVlesliegoots
p1529
aVtracilove
p1530
aVjeffnutbeem
p1531
aVAlanRae
p1532
aVDianaMcSpadden
p1533
a.