(lp0
Vacademy_TMI
p1
aVSimvoly_Builder
p2
aVRealJohnBowers
p3
aVtristanhcole
p4
aVthinker
p5
aVdefygravitylabs
p6
aVscottmathson
p7
aVJinna1972
p8
aVdstanden
p9
aVfwdappio
p10
aVOmarAlMaeena
p11
aVeddydevv
p12
aVansar
p13
aVdelano1810
p14
aVTabletMarks
p15
aVvries809
p16
aVsokaymensah2
p17
aVfatmaankarali
p18
aVNoJnoP
p19
aVerobinson
p20
aVMvslimConnects
p21
aVMariaJamali
p22
aVnotbeurs
p23
aVDeenwise
p24
aVvhs_sorzano
p25
aVGIEEConvention
p26
aVZakatApps
p27
aVamanywael172
p28
aVNihalStic
p29
aVDevadex
p30
aVGravitySketch
p31
aVinitdotai
p32
aVWoutbucker
p33
aVmaddabbani
p34
aVlimos88
p35
aVcrankwheel
p36
aVgeekgonecrazy
p37
aVFaridto
p38
aVmckeenish
p39
aVraisonco
p40
aVboer_rood
p41
aVoldgrilo
p42
aVmodafalla
p43
aVJavascipt
p44
aVjecoupe
p45
aVedugameapps
p46
aVFarid_Darkaoui
p47
aVElfakirM
p48
aVLiuda_Nebo
p49
aVsaasinvaders
p50
aVColinlimo
p51
aVStarkeyKay
p52
aVNS_online
p53
aVybenz11
p54
aVRoyalReviewer
p55
aVrdcnj
p56
aVdcgguide
p57
aVrednet
p58
aVAhmedMahla
p59
aVjuanmartitegui
p60
aVjeremiebold
p61
aVorestes_jose
p62
aVSynergique
p63
aVJessicatexel
p64
aVsc3wnet
p65
aVWoohooDigiMedia
p66
aVowkwen
p67
aVgujjarsaheb5
p68
aVRocketChat
p69
aVHodanIbrahim
p70
aV2BCollective
p71
aVagoussal
p72
aVfrykauf
p73
aVAhlAtharNLBE
p74
aVamateurpreneur
p75
aValmsry_1
p76
aVkishensreeharii
p77
aVinawildeman
p78
aVdavidmiclette
p79
aVHtravelmaldives
p80
aVbyassineb
p81
aVitsnblackburn
p82
aVtienekev
p83
aVsolecartier
p84
aVbrandbucket
p85
aVISaloua
p86
aVMakerHunt
p87
aVManag_Marketing
p88
aVPaulParsons1981
p89
aVminhajkk
p90
aV_StartupUAE
p91
aVboykinopolis
p92
aVScooterino_Roma
p93
aVDStasinoulias
p94
aVmatthewtoren
p95
aValoncarmel
p96
aVimromains
p97
aVritamoubd7
p98
aVRikSeveke
p99
aVxiomarapuga906
p100
aVMouyyadA
p101
aVDubai_CEOs
p102
aVYassinOuider
p103
aVMikaina6
p104
aVIhsaneB88
p105
aVJoeMurfin
p106
aVigladkoborodov
p107
aVinvestsafenow
p108
aVThnkDesignEnjoy
p109
aVpulpolab
p110
aVIBockSama
p111
aVmollier_
p112
aVimwra
p113
aVtimktchan
p114
aVriveranomics
p115
aVthepressfarm
p116
aVregpaq
p117
aVspacearttech
p118
aVSamanRj
p119
aVleovbranco
p120
aVharmhofstede
p121
aVjovica
p122
aVfaysal772
p123
aVCurriculum_nu
p124
aVBasicBitchNatty
p125
aVrvanderpluijm
p126
aVmediaducation1
p127
aVmdgeer
p128
aVhaimosko
p129
aVhpostma
p130
aVAdamWilliams_10
p131
aVMikeFalb
p132
aVrteslaru
p133
aVffarooq00
p134
aVTweetofJules
p135
aVkomiska
p136
aVHatemMahmoud
p137
aVdrgmgame
p138
aVLaghouiterO
p139
aVdolphi
p140
aVmega_bham
p141
aVcarolune
p142
aVwillianduarte
p143
aVlorenzolwalker
p144
aVmichaeldanker
p145
aVSendar
p146
aVMirBonapart
p147
aVdealskee
p148
aVDanaSayr
p149
aVhey_thr67
p150
aVQCUXGal
p151
aViGEASmit
p152
aVcarvalheira1
p153
aVLiselotteGvW
p154
aVsujanpatel
p155
aVJBrunekreeft
p156
aVroamingstories
p157
aVpforpineapple
p158
aVsitoub
p159
aVthelovermanager
p160
aVvacord
p161
aVErwin_vd_Velde
p162
aVmonasso
p163
aVBusinessHero2
p164
aVsh00t_dating
p165
aVKarimJDDA
p166
aVfoundcy
p167
aVlog_stone
p168
aVOnnoBosma
p169
aVmikeginnyc
p170
aVstrawberr_ly
p171
aVdegalan
p172
aVolark
p173
aVoccasy
p174
aVpieterverweij
p175
aVKasTekin
p176
aVMKruyf
p177
aVewoudu
p178
aVQoyyuum
p179
aVemwhytee
p180
aVgotostock
p181
aVJustinFound
p182
aVluismullerhbg
p183
aVMrAkashSharma
p184
aVwilleeh
p185
aVrobringham
p186
aVevelinekaleveld
p187
aVSecureslice
p188
aVpalermomarco
p189
aVLifeBeyondBrdrz
p190
aVNikkiElizDemere
p191
aVteale_af
p192
aVHEROkeyboards
p193
aVmartindogger
p194
aVdaniellekooistr
p195
aVgilamonyet
p196
aVjoshladick
p197
aVSaleemYaqub
p198
aValibugattii
p199
aVsmoofee
p200
aVskywalker
p201
aVeholtzclaw
p202
aVMid0
p203
aVstasparshin
p204
aVsalman_jamali
p205
aVcolinplamondon
p206
aVSimonDamstra
p207
aVQuibb
p208
aVwalid90s
p209
aVjasin_idrissi
p210
aVAnneMarieDroste
p211
aVyazriouil
p212
aVvisualeditor_nl
p213
aVThiemeMeulenhof
p214
aVjetjeb
p215
aVAppAcademyNL
p216
aVMarciaBorges13
p217
aVye0n
p218
aVgetmetorajesh
p219
aVbraunshizzle
p220
aVH6KofJOYTOY
p221
aVhtsh
p222
aVjaouedahmed
p223
aVictLESKIST
p224
aVABC_DEEN
p225
aVourplaylab
p226
aVBoritaj
p227
aVkountero
p228
aVonderwijs
p229
aVemixion
p230
aVbriceseraphin
p231
aVInnofun
p232
aVAlphabetDeFilm
p233
aVo_kmalik
p234
aVOntdekfabriek
p235
aVDigiloket
p236
aVfirestartersNL
p237
aVBKSkerstpakket
p238
aViQMaak
p239
aVfromScratchEd
p240
aVjohnrichmartin
p241
aVabsfarah
p242
aVremongeuze
p243
aVkfarris
p244
aVDigipuzzle
p245
aVBright_center
p246
aVJossmusix
p247
aVvertimec1
p248
aVevb86
p249
aVarkdesign_nl
p250
aVrobbinpruijn
p251
aVhodanjamaa
p252
aVMaarten_vw
p253
aVmwyounis
p254
aVTEDxAmsterdamED
p255
aVingeherself
p256
aVICThelpt
p257
aVcarolinemonking
p258
aVStNelis
p259
aVClaireBoo
p260
aVWijDeSchool
p261
aVMeester_Jeffrey
p262
aVDengeln86
p263
aV__tosh
p264
aVGeweldigeschool
p265
aVfemkekingma
p266
aVerikwoning
p267
aVvosnynke
p268
aVinabel
p269
aVmurielwarners
p270
aVwehkamp
p271
aVmullsork
p272
aVvoiceofanasheed
p273
aVstellingnemers
p274
aVstudentjubilee
p275
aVsalsabeela
p276
aVDaarelAtfaal
p277
aVSakinaDesign
p278
aVKadezaBegum
p279
aVKDEVISION
p280
aVChokriMousaoui
p281
aVPrincessluna11
p282
aVIslamicHalal
p283
aVzkmnboekhouder
p284
aVTeacher_FM
p285
aVtassy0409
p286
aVEuropeanMuslim
p287
aVIBSIbniSina
p288
aVHafsa_asfaH
p289
aVSJ18905785
p290
aVbe_happie
p291
aVBosbergschool1
p292
aVJoerie1988
p293
aVcredutien
p294
aVsantafeez
p295
aViRyls
p296
aVVideobijdeles
p297
aVSBezetting
p298
aVbriskidentity
p299
aVDJMrFreaky
p300
aVxs2me
p301
aVabdelrachyd
p302
aVwoordclusters
p303
aVgermid
p304
aVMKBServicedesk
p305
aVTele2Nederland
p306
aVJokovandenIngh
p307
aVHWSuperstar
p308
aVAnwarShehata
p309
aVtitatoys
p310
aVHennethPB
p311
aVLezenLerenDelen
p312
aVPlaying_Futures
p313
aV7anane
p314
aVMirjamHubert
p315
aVfeenynl
p316
aVirismeerts
p317
aVdennishunink
p318
aVtopografie
p319
aVrealoomph
p320
aVjongeictcoaches
p321
aVGoestoes
p322
aVHierosNL
p323
aVHannahVera_
p324
aVstep2app
p325
aVIslamstudies
p326
aVpuckpeijnenburg
p327
aVkirst
p328
aVHansSlaats
p329
aVbornegoideeen
p330
aVderwentxmas
p331
aVmaxdefeber
p332
aVkeimpedh
p333
aV4pip
p334
aVdidactief
p335
aVJReulen
p336
aVGamesOnderwijs
p337
aVmanonbonefaas
p338
aVsergedebeer
p339
aVpinkse
p340
aVCasadiCeasar
p341
aVThijsBauwens
p342
aVForlagetPropell
p343
aVmvanast
p344
aVOperation_EDU
p345
aVManon_Struik
p346
aVSuperkracht
p347
aVAtotheEtotheH
p348
aVFl0rit0
p349
aVhpted
p350
aVZainaboun
p351
aVRJoch
p352
aVjiblyapps
p353
aVARABEES
p354
aVsabinedewitte
p355
aVwspruijt
p356
aVGiovanniPraet
p357
aVrichardbergmans
p358
aVjoostleraar
p359
aVhetpassepartout
p360
aVSaaltink
p361
aVDailyMina
p362
aVannetsmith
p363
aVmiiir
p364
aVrinusd
p365
aVVisieenPassie
p366
aVdeburgemeesters
p367
aVWshareNL
p368
aVmoslimarts
p369
aViefdadief
p370
aVStan_Putman
p371
aVjooltje1
p372
aVColemanCris
p373
aVMieke_Siemons
p374
aVStorybasedmedia
p375
aVeduappNL
p376
aVjtdeboer
p377
aVsvanderweide
p378
aVyvonnevrijburg
p379
aVManjaVerbeek
p380
aVMaakmijwatwijs
p381
aVMicheleSambrink
p382
aVvroonhov
p383
aVJufKristianne
p384
aVWouser
p385
aVJufBernadette
p386
aVrekenspel
p387
aVLieeToMee
p388
aVCallMeMilan
p389
aVNelevndriessche
p390
aVmaartenhunink
p391
aVfloridee
p392
aVGeoFort
p393
aVmilafilza
p394
aVRadouanMoumen
p395
aVSimpleActs
p396
aVthemuslimsmust
p397
aVfemkesays
p398
aVjkroonstuiver
p399
aVKimRavers
p400
aVMartijn5155
p401
aVB__a_r_t
p402
aVdevlies
p403
aVVincentxH
p404
aVFastCollege
p405
aVEarz
p406
aVmaanlander
p407
aVfixmyglobe
p408
aVIbnoe_islam
p409
aVz25org
p410
aVFilterVO
p411
aVPaulineAbena
p412
aVHamidusSahar
p413
aVAntreprenorCo
p414
aVYvonneKuypers
p415
aVAnneDijkman
p416
aVOSOPeter
p417
aV_mike
p418
aVEef_GWO
p419
aVsdasif009
p420
aVmjstadhouders
p421
aVFleurOV
p422
aVwelleducation
p423
aVDimitrisTzouris
p424
aVflovanlieshout
p425
aVonderwijsvdt
p426
aV7thIlly
p427
aVscholieren
p428
aVirmavangeemen
p429
aVhans_de_rooij
p430
aVJanGijselhart
p431
aVfrankbijvank
p432
aVMoorlag
p433
aVTinQwise
p434
aVSharonLBartels
p435
aVjopesmeijer
p436
aVmattinamsterdam
p437
aVheydendael
p438
aVrenevermeulen
p439
aVJannekeGielisse
p440
aVkimvanpoelgeest
p441
aVJackPitkeathly
p442
aVisabelledenil
p443
aVDivana_Sa
p444
aVCreativeMuslims
p445
aVhassanhajji
p446
aVMelyoon1
p447
aVmabdulghani
p448
aVMIAZUDDIN
p449
aVHardane
p450
aVLeWebNews
p451
aVLaurenFisher
p452
aVCAWMeyer
p453
aVJonahLupton
p454
aVRinekeDerksen
p455
aVarjanmoree
p456
aVFoodking_nl
p457
aVrobinwauters
p458
aVaqeelta_
p459
aVGETLight2012
p460
aVAlikeLast
p461
aVsarakaserer
p462
aVsanders_marjo
p463
aVNetwijs_weetje
p464
aVlinhaijer
p465
aVPeacendUnity
p466
aVVWeerts
p467
aVvrump
p468
aVSURFnet
p469
aVpetervdbroeck
p470
aVrobvank
p471
aVMsDitzE
p472
aVhalalbuzz
p473
aVrobertvhoesel
p474
aVfaramarzhashemi
p475
aVoussama_nl
p476
aVrahmarebii
p477
aVtheonejb
p478
aVecoprenerd
p479
aVriffia1981
p480
aVelsleijs
p481
aVSjouk1981
p482
aVRedouanIbo
p483
aVKMrosen
p484
aVnephtalie
p485
aVBasGeerdink
p486
aVandrehaardt
p487
aVdrlifeline
p488
aVRemi_Bennnis
p489
aVixandidu
p490
aVIslam_WhoWas
p491
aVkevinandersson
p492
aVmediaducation
p493
aVSadaqaJariyaa
p494
aVMoslimsingles
p495
aVAcceleron
p496
aVvipspips
p497
aVEdwinRes
p498
aVLamyaa89
p499
aVRELproducties
p500
aVFubyLifeshowBFS
p501
aVTeenareo
p502
aVMariekeSimonis
p503
aVMoslimVandaag
p504
aVBonafideBinky
p505
aVToekomstTalent
p506
aVguidoz
p507
aVbasmennink
p508
aVOlgaJansen78
p509
aVFerdyGuliker
p510
aVSteunJossef
p511
aVeef_deelt
p512
aVyakimvanzuijlen
p513
aVoscardesigns
p514
aVantob76
p515
aVjazakaznik
p516
aVtechsquarecz
p517
aVsarahkopse
p518
aVTEDxYouthAms
p519
aVEvelyne_P
p520
aVcedricmaloux
p521
aVMisterBloom
p522
aVsalmaansana
p523
aVobartos
p524
aVvervoerders
p525
aVpdevisscher
p526
aVMilklyItalia
p527
aVmuslimgamer
p528
aVRobbertSH
p529
aVjvdmeij
p530
aVSchrijfsel
p531
aVictskogu
p532
aVelinekidsonline
p533
aVmrpaaJ
p534
aVbarthoekstra
p535
aVrachidalm
p536
aVAnjaWessels
p537
aVillmco
p538
aVsaad_irfan
p539
aVJoyceStNicolaas
p540
aVLevKaupas
p541
aVIvanainc
p542
aVraulriera
p543
aVgiegames
p544
aVmuseummedia_nl
p545
aVMediawijzer
p546
aVremibennis
p547
aVtopmorocco
p548
aVdeliverthemilk
p549
aVJap_86
p550
aVdavecates
p551
aVMariken2Wicked
p552
aVjelmerevers
p553
aVgoSwoosh
p554
aVneilpatel
p555
aVLooseKeys
p556
aVstartathlon
p557
aVIslamicPhotos
p558
aVsoulashell
p559
aVarvillalvcassid
p560
aV_rochas_
p561
aVtechnoyogy
p562
aVandycopland
p563
aVKSweeley
p564
aVAstridJoziasse
p565
aVferranpeg
p566
aVThe_Culture_Guy
p567
aVbochenn
p568
aVRGadellaa
p569
aVVlambeer
p570
aVFem_learning
p571
aVandymayer
p572
aVVerdouw
p573
aVGwendolinenxwo
p574
aVSaidKhalota
p575
aVsal_matteis
p576
aVentwerpen
p577
aVsjgerritsen
p578
aValexdenhaan
p579
aVgeogoeroe
p580
aVr_kasmiya
p581
aVgerarddummer
p582
aVInfusiveInc
p583
aVklaver4school
p584
aVWildThingToys
p585
aVSETUPUtrecht
p586
aVEduforce
p587
aVbyMonique
p588
aVeeep
p589
aVvdpoorten
p590
aVKrantenRSS
p591
aVNandoBennis
p592
aVolafiolio
p593
aVkaas
p594
aVDP_NL
p595
aVIJsfontein
p596
aVmvexel
p597
aVMNAH2011
p598
aV__Vero__o
p599
aVMuseumnachtLDN
p600
aVoba_milestones
p601
aVtwitadviseur
p602
aVDeActiviteit
p603
aVMikeSchiltmans
p604
aVRudolphplaywood
p605
aVMaxClassNL
p606
aVrestarunat
p607
aVdayforchange
p608
aVmeestersipke
p609
aVHetLeerhuis
p610
aVckvnl
p611
aVGastindeKlas
p612
aVwrubens
p613
aVkwartetcadeau
p614
aVBijlescoach
p615
aVmenkhorst
p616
aVStudentDocent
p617
aVhappykamping
p618
aVNatuurvolTuinen
p619
aVtwincent
p620
aVmeesterjaco
p621
aVIkleeranders
p622
aVnatasjavandijk
p623
aVSiezen
p624
aVreclamebureau76
p625
aVmynameisHaas
p626
aVmargonvantoor
p627
aVanvanlaer
p628
aVPechaKucha033
p629
aVMarck_Feller
p630
aVWardKentie
p631
aVOntdekjestad
p632
aVlouishilgers
p633
aVmijnnaamishaas
p634
aVernomijland
p635
aVswinxs
p636
aVswaontje
p637
aVgroningermuseum
p638
aVMediaguild
p639
aVtimon_nl
p640
aVthijsdevries
p641
aVabram1duq98
p642
aVPhilipPlotnikov
p643
aVSpreadthemsg
p644
aVinekeve
p645
aVipad_by_apple
p646
aVMuxlimInc
p647
aVJacqParijs
p648
aVFlikkie
p649
aVkarinwinters
p650
aVmuslimconsumer
p651
aV100procentbekke
p652
aVStemGarden
p653
aVummahdesign
p654
aVSaadMalik
p655
aVMinnDTolde
p656
aVhilalspark
p657
aViPodsibilities
p658
aVvincentsteurs
p659
aVmichelboer
p660
aVjmag_ro
p661
aVsyncplicity
p662
aVUmmahBuzz
p663
aVJalalOuissal
p664
aVLukies
p665
aVMShoch
p666
aV_danieldevries
p667
aVUgameUlearn
p668
aVILOVEQURAN
p669
aVsophisti
p670
aVwouterreeskamp
p671
aVsuccesscoach
p672
aVKnowOneAnother
p673
aVKreekoor
p674
aVdensy
p675
aVDieterM
p676
aVMarathonkeje
p677
aVDriesDeRoeck
p678
aVMar10eKramer
p679
aVTijani_Goullet
p680
aVFormat23
p681
aVarnejanse
p682
aViskandr
p683
aVBucht
p684
aVMonobanda
p685
aVIdeeBart
p686
aVcodheadquarters
p687
aVMediapedagoog
p688
aVmariekemove
p689
aVjurriaanvr
p690
aVp_van_zandvoort
p691
aVjelleprins
p692
aVlexhupe
p693
aVwarempel
p694
aVprima_online
p695
aVAnAyahADay
p696
aVsannekeprins
p697
aVflorinablokland
p698
aVDad_O_Matic
p699
aVkhaledus
p700
aVHelikon
p701
aVOnIslamInteract
p702
aVmarceldeleeuwe
p703
aVjeroen_rougoor
p704
aVCarlaMondig
p705
aVsannekuyt
p706
aVjbulsink
p707
aVAlWahy
p708
aVtrendmatcher
p709
a.