(lp0
VJamesnkoScott
p1
aVolorunfemi01
p2
aVbinarymanager
p3
aVTheNootropics
p4
aVtkennedysa
p5
aVGage_TheMage
p6
aVvaporwave94
p7
aVchadleebryson
p8
aVCryptoNoobIco
p9
aVReconerg
p10
aVARTEM_KLYUSHIN
p11
aVLimpopoDreaming
p12
aVBotCon_Africa
p13
aVfindsolution01
p14
aVhiredgnu
p15
aVeveryoneisgr8
p16
aVnootrolist
p17
aVJimRossSmith
p18
aVVirtualCarShopZ
p19
aVCuttingEdgeZA
p20
aVONF_CORD
p21
aVadambradshaw86
p22
aVHeleenMills
p23
aVRyanPenderis
p24
aVJeffreyDonnelly
p25
aVjowami
p26
aVOctoFibre
p27
aVagreed_startup
p28
aVF2006
p29
aVtim74za
p30
aVtreeshake
p31
aVDenyRahmat13
p32
aValpacacactus99
p33
aVmanagementlist
p34
aVgeorg_v_reenen
p35
aVTheFabulousSo
p36
aVAudOneNetwork
p37
aVPrestigio_SA
p38
aVBetterUwithMClu
p39
aVMoneySavvyKids
p40
aVCrowdfundingDo
p41
aVPeterJeung
p42
aVneekiness
p43
aVKevin_5201314
p44
aVdenisg6c0
p45
aVg471n
p46
aVsladec
p47
aVScobleizer
p48
aVlunomoney
p49
aVpeterretief
p50
aVShingieMuringi1
p51
aVJamesKennedy
p52
aV655322h
p53
aVgetcarter01
p54
aVmwest
p55
aVSibuSikoShosh
p56
aVChadb
p57
aVByKazaDesign
p58
aVhighvoltage
p59
aVvaughndickson
p60
aVh0d3r
p61
aVnkateko_chauke
p62
aVNellie_Jor
p63
aVVanillaISP
p64
aVSleekgeekSA
p65
aVpbsbaitsjnr
p66
aVPierreGaleon
p67
aVQuiglies
p68
aVWiFiForumSA
p69
aVfabiandamboeck
p70
aVdaviddebeer
p71
aVianduvenage
p72
aVneil_garb
p73
aVdonny912
p74
aVestiaan
p75
aVYueDiligence
p76
aVGauchNikolas
p77
aVCamaleonteLtd
p78
aVEarEnginnering
p79
aVpuddledrop
p80
aVthe_acc_team
p81
aVrambowine
p82
aVhillaryechomgbe
p83
aVThe_Red_Bloods
p84
aVliquid_tweets
p85
aVbkokster
p86
aVasmithsmurf
p87
aVLobstrco
p88
aVblakShuz
p89
aVreniersevenster
p90
aVsimanyeSA
p91
aVSportsmansW
p92
aVimb_financial
p93
aVdeesmith_za
p94
aVCatherineSmit
p95
aVrodneylee057
p96
aVlansmagyum
p97
aVChargedEntrep
p98
aVdebbyblaine
p99
aVCustomisedApps
p100
aV4imobile
p101
aVTourdeBoland
p102
aVJohanAPrinsloo
p103
aVvilakazisanele1
p104
aVmotau_sm
p105
aVAlpecinZA
p106
aVcsturgeon1980
p107
aVdaniellarenzon
p108
aVExclr8
p109
aVJFlax
p110
aVChakalakaSec
p111
aVofficeninjasSA
p112
aVMKaigwa
p113
aVrecruitometer
p114
aVlarsnamo
p115
aVjdbeardsley
p116
aVHansMol
p117
aVabkoude
p118
aVFoodBlogCT
p119
aVprofitfxkenya
p120
aVGareth_More
p121
aVGillesCouture
p122
aVCliff_H82
p123
aVDebbas
p124
aVtourbud
p125
aVChrisDBeer
p126
aVCTtaoofpao
p127
aVMbwana
p128
aVdioufaly
p129
aVMrPigeonPie
p130
aVsimonback
p131
aV00Hendri
p132
aVitsdevbarrett
p133
aVTailorNamed
p134
aVRes_Circle
p135
aVTeamOrbitsurf
p136
aVVillabrothers
p137
aVYOMCompany
p138
aVRicoh_SA
p139
aVGPN35Invest
p140
aVOSlOlSO
p141
aVSiMODiSA_SA
p142
aVfrank_meehan
p143
aValewynap
p144
aVVouchappZA
p145
aVlivinnotes
p146
aVfoundedinsa
p147
aVlesterhein
p148
aVChargent_App
p149
aVmartinslabbert
p150
aVtoitoit
p151
aVDie_Son
p152
aVCameralandCT
p153
aVMashartyTembo
p154
aVwolcomm
p155
aVonaevay
p156
aVVR2SEO
p157
aVBitcoinZAR
p158
aVWomeninTechZA
p159
aVjohannesnel
p160
aVssaman424
p161
aVMarcelloscherme
p162
aVjusJoeMajor
p163
aVMartPasquier
p164
aVSvenBlom2
p165
aVmlabsa
p166
aVoliverbryant
p167
aVpieterse_wessel
p168
aVRunentrepreneur
p169
aVGrantSidwell
p170
aVjoboohworld
p171
aVcrumbsfilm
p172
aVTheFinTech50
p173
aViPrrof
p174
aVandrewlagrange
p175
aVaglsupply
p176
aVRiz1noorsy
p177
aVAnwilkaVineyard
p178
aVnetprophetlive
p179
aVshmono1
p180
aVallenjaffe
p181
aVDutchMode
p182
aVswimiacom
p183
aVsafunctions
p184
aVruark
p185
aVTeracoDC
p186
aVDavidGrahamSA
p187
aVMidaKirova
p188
aVYaboi_Landy
p189
aVPiksory
p190
aVMaxKaizen
p191
aVChannelopathyFO
p192
aVThe_Only_Eugene
p193
aVcobiinteractive
p194
aVNickRepublic
p195
aVasemota
p196
aVMicrosoftAfrica
p197
aVmarksaner
p198
aVthecypherfunks
p199
aVhermanheunis
p200
aVMartinus_01958
p201
aVGerrieleRoux
p202
aVTheilovecompany
p203
aVernstboshoff
p204
aVAdansoniaEco
p205
aVgalixo
p206
aVKurtJoker
p207
aVjohngiles
p208
aVenikorozman
p209
aVCMECape
p210
aVdsmoteane
p211
aVAlainNgango
p212
aVPaulSchreuder
p213
aVChrisTisdall
p214
aVSilvertreeCap
p215
aVPikaPayBot
p216
aVSitecreationsSA
p217
aVHeDanSu_Media
p218
aVCraigHTyson
p219
aVterrencekommal
p220
aVODALID
p221
aVJoziLUG
p222
aVnohtypdev
p223
aVzaraalyssa
p224
aVQuick_Do
p225
aV9needs
p226
aVTimBishopSA
p227
aVChefWynand
p228
aVFin4Franchises
p229
aVladynuggets
p230
aVgaelicgod
p231
aVwwcteam
p232
aVdefZA
p233
aVIanBredenkamp
p234
aVjeffmutonho
p235
aVBrianPinnock
p236
aVzonefitness_SA
p237
aVNoonGunCPT
p238
aVRF21
p239
aVdanbaileyza
p240
aVTortoise3Hare
p241
aVvostoapp
p242
aVrenierkriel
p243
aVDomNusca
p244
aVamberfarren
p245
aVDadsLetters
p246
aVNovConSA
p247
aVschalkkearney
p248
aVtimharper
p249
aVGideonFCarstens
p250
aVthemediagenius
p251
aVSiliconCape
p252
aVchildrenspligh1
p253
aVahoyswartskaap
p254
aVweskusbokkie
p255
aVj_norwood_young
p256
aVixoxotrust
p257
aValessioh
p258
aVStarlingsCafe
p259
aVBitcoinPRBuzz
p260
aVDAVIDBARISILETA
p261
aVEVO_Fitness
p262
aVtriggerbox
p263
aVClarensGoGreen
p264
aVRooftopGroup
p265
aVSnapScanApp
p266
aVhebrecht
p267
aVIntentData
p268
aVMichelle_K_
p269
aVajkock
p270
aVkabloemski
p271
aVOnKuns
p272
aVemmunalq0722
p273
aVsinge
p274
aVLulaCastellanos
p275
aVChaosTheorySA
p276
aVonlyswimshop
p277
aVQashNet
p278
aVvogiemudia1
p279
aVEinhornPaula
p280
aVmattcrox
p281
aVdigitalagent
p282
aVRecoveri_Gap
p283
aVannelienbasson
p284
aVIT_MAGE
p285
aVTorongLDRamela
p286
aVStarsSwim
p287
aVartifactsa
p288
aVwaldimar
p289
aVGoosenWynand
p290
aVRealmDigital
p291
aVjenniferwise22
p292
aVonQsystems
p293
aVJasonXenopoulos
p294
aVLKBishere
p295
aV4openMinds
p296
aVwilburlikesmith
p297
aVshinypap3r
p298
aVGovHackSA
p299
aVCingaPhiwe
p300
aVSeedstars
p301
aVpushplaybang
p302
aVOpenInnov8
p303
aVdavidvalles007
p304
aVistefani
p305
aVpaulsalvage
p306
aVpollyannaf
p307
aVPhilip_Louw
p308
aVOncodad
p309
aVarthurattwell
p310
aVYourBusinessMag
p311
aVExperioWill
p312
aVSocial8er
p313
aVStuShapiroPhoto
p314
aVJonahLupton
p315
aVthe_o
p316
aVlyndacoop
p317
aVEvetteJvR_SM
p318
aVchowhubsa
p319
aVannua
p320
aVKennyInggs
p321
aVwagonza
p322
aVAlanVesty
p323
aVSirEmrich4
p324
aVmikunga
p325
aVchrisrolfe1
p326
aVReitumetseThaki
p327
aVriaankok
p328
aVNanSteep
p329
aVintelli_cred
p330
aVTachyonStream
p331
aVWeAreSupernice
p332
aVDanMOSullivan
p333
aVadrianmoisey
p334
aVKuilmanNick
p335
aVyogazelle
p336
aVAgwuEunice
p337
aVBaseVitam
p338
aVdarenfuchs
p339
aVnuclearpengy
p340
aVWoordfees
p341
aVtomjackson1988
p342
aVFrancisPatienc1
p343
aVdawidvangraan
p344
aVk1d_bl4ck
p345
aVEntrepSA
p346
aVPietervh2013
p347
aVgharvett
p348
aVdguasco
p349
aVsimonstewart
p350
aVLeendert_P
p351
aVshauntrennery
p352
aVjanniebun
p353
aVAKPELIOTHUKE
p354
aVjohn_gilmore
p355
aVscwids
p356
aVmatthewbuckland
p357
aVLlewClaasen
p358
aVksnijders
p359
aVjrgns
p360
aVdgtlorange
p361
aVk_osabi
p362
aVkevl
p363
aVDUOMarketing
p364
aVfifthteamprop
p365
aVKnoGno
p366
aVTurritoNetworks
p367
aVsarahcremer
p368
aVnsentsima
p369
aVbrinkvdm
p370
aVthulanin
p371
aVQhuConsult
p372
aVBigBreakLegacy
p373
aVtrevorh7000
p374
aVMacTribeIT
p375
aVDawkins_INC
p376
aVbrendonradomsky
p377
aVpaymentspree
p378
aVvincenthofmann
p379
aVAgripropSA
p380
aVgreybeardsme
p381
aVrogernort
p382
aVGrantDre
p383
aVrobbycoelho
p384
aVTriggerfishZA
p385
aVza_support
p386
aVbernopotgieter
p387
aVsportslovin
p388
aVelanlohmann
p389
aVWoodstockConn
p390
aVSteynViljoen
p391
aVCrowdinvestSA
p392
aVimel
p393
aVgometroguy
p394
aVSnowgooseSA
p395
aVAlexMehlhorn
p396
aVboernoir
p397
aVwesleylynch
p398
aVBOS
p399
aVtheoireton
p400
aVDashelleyG
p401
aVlam_veejay
p402
aVDeafTheo
p403
aVweareteamgeek
p404
aVWPDensity
p405
aVFirefly_cc
p406
aVAwenIbrahim
p407
aVmobidickza
p408
aV061BatsebaDAMIN
p409
aVJohnBrownSA
p410
aVmarnusminie
p411
aVWallfish
p412
aVBottom2thatop
p413
aVMiddelburgZoneH
p414
aVdrdrew7906
p415
aVrosanne_kruger
p416
aVrossiza
p417
aVR_VeeVee
p418
aVGEWGreece
p419
aVmtrends
p420
aVCrideaSolutions
p421
aVsoji_akinlabi
p422
aVRonaldArendse
p423
aVPRNETZA
p424
aVdkkakulu
p425
aVCraftCreativeAg
p426
aVPeteDiscovery
p427
aVapie130
p428
aVSagittarLtd
p429
aVSSCGSouthAfrica
p430
aVHoliestLie
p431
aVevly
p432
aVYolande_St
p433
aVARG_Travel
p434
aVShosholoZA2
p435
aVZTshetsha
p436
aVGreganovich
p437
aVgordonrink
p438
aVIcadDesign
p439
aVrobgilmour
p440
aVDishLFH
p441
aVZAVineHugger
p442
aVtheblomboy
p443
aVCnGcraft
p444
aVmoe1091
p445
aValexcomninos
p446
aVshirleyeadie
p447
aVvirginactiveSA
p448
aVell1ps1s
p449
aVarnefromsa
p450
aVplushpuppet
p451
aVkwaailight
p452
aVrich_spiers
p453
aVGikas
p454
aVpyconza
p455
aVboom_fm
p456
aVnuknad
p457
aVmakdas
p458
aVRAKIndia
p459
aVDenverEbden
p460
aVHannes_Pienaar
p461
aVRAMfest
p462
aVYouluhService
p463
aVwarren_ferreira
p464
aVwernersmit
p465
aVAidenconnolly
p466
aVdanielbarn
p467
aVMartin_Ras
p468
aVkevanchristmas
p469
aVWernzio
p470
aVgussilber
p471
aVMisterRodo
p472
aVmwebafrica
p473
aVWAPAonline
p474
aVmark_raa
p475
aVisayso101tweet
p476
aVGary_Ashby
p477
aVderek_friend
p478
aVFakeJakeZuma
p479
aVstartmefund
p480
aVdannygreeff
p481
aVThandoOnline
p482
aVtimharris
p483
aVAsgarmahomed
p484
aVmiekelsboogla
p485
aVTEATERteater
p486
aVbella_velo
p487
aVgeniusboywonder
p488
aVTerence_Rix
p489
aVIntratec
p490
aVemmakaye
p491
aVkinza00388036
p492
aVcahofmeyr
p493
aVbcbob
p494
aVMyOrangeBooks
p495
aVmichelemccannis
p496
aVQuickJobs_mobi
p497
aVJacquesStruwig
p498
aVVanessa007Smith
p499
aVjessello
p500
aVPsyCapeTown
p501
aVMichelleShalfin
p502
aVBeerLabSA
p503
aVFlow_SA
p504
aVFIGGEXCEL
p505
aVEco_Effect
p506
aVSimonHepburn
p507
aVgianniponzi
p508
aVDirkBull
p509
aVfranwess
p510
aVretiefgerber
p511
aVstbpoi
p512
aVRedOwlTweets
p513
aVCookedSurfCafe
p514
aVStratusFit
p515
aVwillembuchner
p516
aVr_perold
p517
aVjohanbeyers
p518
aVdeklerkmc
p519
aVLenSteenkamp
p520
aVCapeCalendar
p521
aV_breaktherules
p522
aVDarrylLopes
p523
aVgrow_media
p524
aVafr_adventure
p525
aVdesignbuoy
p526
aVacraig5075
p527
aVsmarta
p528
aVheinkoen
p529
aVjujumalema
p530
aViamgabam
p531
aVFleabeke
p532
aVpsmacfarlane
p533
aVnicksoper
p534
aVRPJ360
p535
aVWotzupCapeTown
p536
aVal27x
p537
aVNateKettles
p538
aVNicolaMawson
p539
aVbenedictkelly
p540
aVholtzhau
p541
aVcharlster
p542
aVhenkpepler
p543
aVmarlonparker
p544
aVminimal_mystic
p545
aVChrisvWyk
p546
aV_Saberi
p547
aVTamboerBE
p548
aVgriffioen_mark
p549
aVimesias
p550
aVprperold
p551
aVAdrivanderMerwe
p552
aVcarelvwyk
p553
aVmaroogle
p554
aVTreeBSD
p555
aVhackstb
p556
aVmyHPSA
p557
aVjhlouw86
p558
aVGustPay
p559
aVsimondlr
p560
aVDesryScott
p561
aVKleinConstantia
p562
aVkobusehlers
p563
aVdowntempo
p564
aVdewaldbotha
p565
aVSolidBrands
p566
aVJayx
p567
aVSSTTiming
p568
aVMobDonkey
p569
aVthomas01
p570
aVkuhestanfarm
p571
aVmalcolm_vs
p572
aVleored
p573
aVscaleconf
p574
aVYaniraHaffiz274
p575
aVQAUDIT
p576
aVcalakind
p577
aVmilknhoneyshow
p578
aVAndreaBoehmert
p579
aVjamesmoneyfun
p580
aVBlaauwklippen
p581
aVVintersim2012
p582
aVdigitalslrsNPE
p583
aVDigitalSlrsTP
p584
aVruthieritz
p585
aVmolocapetown
p586
aVmayaak2
p587
aVComeDineOnline
p588
aVkitaarpeer
p589
aVnickkuhne
p590
aVBurgervanDyk
p591
aVkungfoosion
p592
aVOgilvyCT
p593
aVtoxhino
p594
aVSAINE_SA
p595
aVfaheemkajee
p596
aVparautenbach
p597
aVscienceSUN
p598
aVDaveBlakeyZa
p599
aVrbrdnkmp
p600
aVdarynsmith
p601
aVParentsCornerZA
p602
aVdjwarreneast
p603
aVgvrooyen
p604
aVJoeypits
p605
aVrorymagee
p606
aVdpcoetsee
p607
aVJwomers
p608
aVSmallBizStar
p609
aVNPrattenAssoc
p610
aVdadacapetown
p611
aVmeggiefayeZA
p612
aVDominiqueVO
p613
aVtruevoicecom
p614
aVfuturecapetown
p615
aVMontagePrint
p616
aV_Event_Horizon
p617
aVOzThoriumEnergy
p618
aVGumpedia
p619
aVTechCityUK
p620
aVContrast_Studio
p621
aVmzerakabalo
p622
aVtlambrechts
p623
aVjeremysetzer
p624
aVbryndivey
p625
aVFumanaOrg
p626
aVmarcelvdg
p627
aVLeeStuttaford
p628
aVjennie_wu
p629
aVstefanieelliott
p630
aVAreaCodeNews
p631
aVTeachingYouNet
p632
aVnomadone
p633
aVusersthink
p634
aVmarek_koza
p635
aVmodzzle
p636
aVwebcentric_sa
p637
aVRockingTheDaisy
p638
aVMWEBTweets
p639
aVCarfordable
p640
aVjulieinthecape
p641
aVSPN8
p642
aVIdentityWoman
p643
aVjgpage
p644
aVMcUrfe
p645
aVbrenxl
p646
aVCaz_Johnson
p647
aVRecruit2network
p648
aVVodacom
p649
aVailing3181
p650
aVeco_preneur
p651
aVWPCapeTown
p652
aVpixelsthatrock
p653
aVzbra
p654
aVthatandrewwhite
p655
aVcptcarla
p656
aVjacomuller
p657
aVLizelleCloete
p658
aVRobynPfohl
p659
aVmdiazlaguardia
p660
aVSePP
p661
aVrhanekom
p662
aVThati_Mooki
p663
aVRockingRococo
p664
aVDaredevil_Run
p665
aV83262245219
p666
aVwaroop
p667
aVle5edi
p668
aVVerastha
p669
aVcarlwegelin
p670
aVjunkmailcoza
p671
aVolgijean
p672
aVclivez
p673
aVradoxjourney
p674
aVKate_Nero
p675
aVSkaaptjop
p676
aVTheQuadrantLife
p677
aVSue_Rutherford
p678
aVclubdecodance
p679
aValastairotter
p680
aVnuwrldnf8r
p681
aVbrandsocialSA
p682
aVgreg_dale
p683
aVderickhewetson
p684
aVCaptainMorgan_
p685
aVDanDonkey
p686
aVpatrick5819
p687
aVAdrianStanford
p688
aVtniland
p689
aVWilliams_Hunt
p690
aVMaikeSchulze
p691
aVAndaMojo
p692
aVHarryReginald
p693
aVrmberry
p694
aVBluegrassgroup
p695
aVB_D_Shaw
p696
aVtimshier
p697
aVtessneale
p698
aVheavychef
p699
aValvin_chang
p700
aVthekokodiaries
p701
aVblinktower
p702
aVJennyMcKinnell
p703
aVartpreston
p704
aVpersonaldata
p705
aVdivapizza
p706
aVJoe_Botha
p707
aVbje
p708
aVWordsbyBrianna
p709
aVeNet_sa
p710
aVsessa
p711
aVInvenfin
p712
aVOgamesdotcom
p713
aVpipeweed
p714
aVInfointeg
p715
aVjumpstartersa
p716
aVAgapeSingles
p717
aVtomfordme
p718
aVNicMuhl
p719
aVmodgson
p720
aVlinkcrankcom
p721
aVxsyn
p722
aVnbroers
p723
aVGabriellala
p724
aVtweettanktweet
p725
aVIncredibillOSS
p726
aVdanbowyer
p727
aVcemefape
p728
aVrgslr
p729
aVroblith
p730
aVMiss_Biker
p731
aVbryancasson
p732
aVndhct
p733
aVwerner_dutoit
p734
aVS7EYN
p735
aVroule_
p736
aVtooduSA
p737
aVeffectuationHQ
p738
aVSebata
p739
aVcobusbernard
p740
aVAubreyKilian
p741
aVlarahumby
p742
aVcocoonmassage
p743
aVgerjohoffman
p744
aVpokencape
p745
aVicetiger
p746
aVdaschristine
p747
aVnilskoerber
p748
aVTeri733
p749
aVpweingartz
p750
aVanfraser
p751
aVKeetvZ
p752
aVhaywardsafaris
p753
aVsolidgame
p754
aVthemodelbase
p755
aVlenwnc
p756
aVjaxonrice
p757
aValisonwestwood
p758
aVdirktolken
p759
aVSchizoTechno
p760
aVValLewelling337
p761
aVmariabrophy
p762
aVTessa_Purdon
p763
aVshanak
p764
aVWinesalittle
p765
aVvhata
p766
aVrobstokes
p767
aVShortcutShawn
p768
aVPrimalWoolf
p769
aVFabFalseBay
p770
aVwhayles
p771
aVJohnsonZA
p772
aVrystudents
p773
aVMariettedTH
p774
aVIS_global
p775
aVAllExerciseSite
p776
aVMelissanelsen
p777
aVpencilgirlsa
p778
aVsteliogouveia
p779
aVemma_donovan
p780
aVVodacom111
p781
aVBienneHuisman
p782
aVUmlingoPrinters
p783
aVrdrey1
p784
aVSyras12
p785
aVbrettonvine
p786
aVpeopleMASSIVE
p787
aVAlistairPugin
p788
aVStormvdm
p789
aVchrisdasie
p790
aVFred_Roed
p791
aVprettylenzboy
p792
aVBeingsam1
p793
aVhreikeras
p794
aVtheovn
p795
aVkhets
p796
aVMoniqueTheron
p797
aVjudsdp
p798
aVpeterhd
p799
aVGoToSouthAfrica
p800
aVmysticdrummer
p801
aVinternetixLive
p802
aVnelson_art
p803
aVsimphiwe_antony
p804
aVPriceCheck_SA
p805
aVScoopStudio
p806
aVthescott
p807
aVdsearls
p808
aVelodiek
p809
aVernstk
p810
aVIntrinsyc
p811
aVBJTStevens
p812
aVmathiasbaert
p813
aVbythemntside
p814
aVAmarige007
p815
aVquantomas
p816
aVdigitalID
p817
aVnaeem_24
p818
aVfingerpantsula
p819
aVWTFmediaconf
p820
aVdasijoe
p821
aVgeekrebel
p822
aVDavidGibbons
p823
aVCoCreatr
p824
aVUni_IQ
p825
aVTylerReed
p826
aVVinnyLingham
p827
aVPoeksie69
p828
aVmdpmarketing
p829
aVKateWolters
p830
aVBusinessCoachSA
p831
aVgilbert_makore
p832
aVdixxiedean
p833
aVmariskaza
p834
aVBodhiThree
p835
aVJoleenMoulder
p836
aVTulbaghS
p837
aVcarriebish
p838
aVTheArneD
p839
aVJanetParkinson
p840
aVadriana872
p841
aVAbigailK_
p842
aVFila1982
p843
aVcraigbalfour
p844
aVKey_Connections
p845
aVmainct
p846
aVhendrik_louw
p847
aVanotheralan
p848
aVKilimanjaroTZ
p849
aVfam2010wc
p850
aVgreenglobalnet
p851
aVFaxBuddy
p852
aVAslam_Levy
p853
aVkarendempers
p854
aVd4v3g
p855
aVthetenantza
p856
aVMarthinusBotha
p857
aVversusthewolf
p858
aVprojectania
p859
aVChilliMktg
p860
aVjono1980
p861
aVjanbos
p862
aVJackParow
p863
aVmetaMeerkat
p864
aVbawrakza
p865
aVCapeTown
p866
aVTech4Africa
p867
aVarkitux
p868
aVFloridBPali
p869
aVTrustFabric
p870
aVDazMSmith
p871
aVNewMediaLabs
p872
aVRichardWooding
p873
aVdriftwood1220
p874
aVDChetty
p875
aVhomescanada
p876
aVtajcapetown
p877
aVphilbuktoo
p878
aV24_Games
p879
aVBobMabena
p880
aVbruce_wade
p881
aVTheCafeMax
p882
aV2010businessSA
p883
aVCharlN
p884
aVSkurk1h
p885
aVRochelleSA
p886
aVrafiq
p887
aVmarkkalkwarf
p888
aVckzero
p889
aVFireYourBosss
p890
aVMmeZelda
p891
aVdonald_jackson
p892
aVcarlavanstaden_
p893
aVtimlind
p894
aVtamrynwaters
p895
aVo3crystal
p896
aVMercuryLiveCTN
p897
aVsuncoastrvs
p898
aVmusersa
p899
aVkwrege
p900
aVtalented2produc
p901
aVskeptomai
p902
aVabsolutemag
p903
aVanastacia
p904
aVDiners_Delight
p905
aVlcctrustboston1
p906
aVWhipWord
p907
aVMikaRed
p908
aVGildaDuran410
p909
aVbradleyvoges
p910
aVunderinfluence
p911
aVmjturner
p912
aVMotivatedToday
p913
aVandrewsmit
p914
aVlwbotha
p915
aVItsJustJack__
p916
aVdong3trailers
p917
aVStElmos
p918
aVricegirl2
p919
aVthe_storyboard
p920
aVEarnR7500pmPT
p921
aVSmoothieNut
p922
aVmorganbehr
p923
aVingi_d
p924
aVTheBraaiMaster
p925
aVCamGreen
p926
aVCT_SPIN
p927
aVStandardBankZA
p928
aVbarbsMall
p929
aVstevesong
p930
aVJustinStanford
p931
aVLilberto
p932
aVafairweather
p933
aVeyespy
p934
aVLaurenCHolmes
p935
aVcvoxel
p936
aVMarcKatzy
p937
aVza5
p938
aVdarb
p939
aVBizAcumen4Art
p940
aVmciSA
p941
aVParriLuckhoff
p942
aVpieterwnel
p943
aVpeninsulaTM
p944
aVmysticopias
p945
aVMAN_TV
p946
aVteepog
p947
aVtimlunn
p948
aVbrankobrkic
p949
aVMikeMueller
p950
aVsamanthaperry
p951
aVMTNBusinessZA
p952
aVwarpeddragon
p953
aVmariusb
p954
aVcluckhoff
p955
aVChrisRawlinson
p956
aVarbitraryuser
p957
aVdiekloon
p958
aVPshyMorphic
p959
aVfbotha
p960
a.