(lp0
Vrainerhahnekamp
p1
aVantonio_durg
p2
aVkaurin_marina
p3
aVDanLebrero
p4
aVrunical
p5
aVMoumenSoliman
p6
aVLuca_St21
p7
aVimnjk
p8
aVvignesh_mm
p9
aVLovegaming13
p10
aVtomasselnekovic
p11
aVowlgum
p12
aVkuntal218
p13
aVjonathan_zuniga
p14
aVFINIENInsights
p15
aVannaradulovski
p16
aVcharlotte_hager
p17
aVcgnkev
p18
aVpilniczek
p19
aVotasos
p20
aVvemalababu
p21
aVBassChron
p22
aVchristj
p23
aVks_chew
p24
aVderWallace
p25
aVdschoberegger
p26
aVbolonio
p27
aVMartinoNotts
p28
aVpate_tushar
p29
aVThe_GeniuS93
p30
aVDanielLindemann
p31
aVadnankarsic
p32
aVandreytierra
p33
aVKgomotsokekana5
p34
aVabhishekkrpand1
p35
aVJeromeHardaway
p36
aVanenthV
p37
aVPixelsPencil
p38
aVfkamani
p39
aVTheCamazotz
p40
aVokbel
p41
aVOAcode
p42
aVvaidehijoshi
p43
aVIMore73
p44
aVbenjaGarrido
p45
aVjefersonx
p46
aVjason_kelly6
p47
aVNac_
p48
aVCodeWisdom
p49
aVIonicEgypt
p50
aVMorphbreed
p51
aVIfeyinwaaa
p52
aVJAichmAG
p53
aVtobiaspezolt
p54
aVsierraventures
p55
aVcarlakroll7
p56
aVviennajs
p57
aVDenizRovcanin
p58
aVddeveloperr
p59
aVmadsnic
p60
aVTeensWhoCode
p61
aVpointij
p62
aVcyberea
p63
aVtaubi88
p64
aVeeveereon
p65
aV__danmark
p66
aVjustjulian14
p67
aVstefanhaubner
p68
aVSatya_Sudheer
p69
aVImmoAds
p70
aVChristinaMokoru
p71
aVEmirDemirdag
p72
aVitsmikeferrari
p73
aVkochse2
p74
aVsachsenhofer
p75
aVapricot1050
p76
aVpjbrito
p77
aVflorian314159
p78
aVMatomyGroup
p79
aVrobson341
p80
aV3Kreis
p81
aVPlagianosEvangg
p82
aVLoveIT_TN
p83
aVDavidTaller9
p84
aVbenmvp
p85
aVmiro_rosandic
p86
aVmatfsw
p87
aVCorlaOnline
p88
aVTataGelashvili
p89
aVStaklenoZvono
p90
aVviclotana
p91
aVmichalmarencik
p92
aVmarinkovicvlado
p93
aVFranzAntonicek
p94
aVt_strohmeier
p95
aVlearek
p96
aVmotionvector
p97
aVSuriyaaKudoIsc
p98
aValexnavratil
p99
aVchrisizeh_
p100
aVtockards
p101
aVsacha_dusan
p102
aVInanDrinan
p103
aVydnmre
p104
aVteam_items
p105
aViteratec
p106
aVshomsy_lost
p107
aVrauch1989
p108
aVfail_faster
p109
aVBizzyIzDizzy
p110
aVleowe__
p111
aVplscallmejoe
p112
aVneilgotnothing
p113
aVAlEnizi
p114
aVRob_Kra
p115
aVjustinxreese
p116
aVTechGameTeddy
p117
aVmayer_konrad
p118
aVsLatocha
p119
aVj3610
p120
aVspecter_bg
p121
aVsn3ek
p122
aVyukki201705
p123
aVvaaiacom
p124
aVTheFrekans
p125
aVshanselman
p126
aVpeterireds
p127
aVesposimo7
p128
aVtherufa
p129
aVsbosonline
p130
aVwilsonincs
p131
aVzeroooc
p132
aVmmoritztweets
p133
aVJesine99
p134
aVfedesardo
p135
aVstygvir
p136
aVmindbdsm
p137
aVmiftahonly
p138
aVsamo4fun
p139
aVGlaubermanAaron
p140
aVnothegger
p141
aVrainer_amler
p142
aV_alexgross
p143
aVdimeji_taiwo5
p144
aVjuandivq
p145
aVMichael_Hladky
p146
aVmcsorex
p147
aVorenaksakal
p148
aVStefanPoremba
p149
aVCloudsandwakes
p150
aVDelameh
p151
aVDoctor_JDawg
p152
aVjakub_jo
p153
aVRudolfTraunm
p154
aVMarioKlima
p155
aVseredmo
p156
aVH_Lohninger
p157
aVcusalmi
p158
aVMaikNiedermayr
p159
aVSwanros
p160
aVYordAndy
p161
aVChiebuniem_
p162
aVNinahaKazuko
p163
aVriePete
p164
aVkompetenzadri
p165
aVsk22dev
p166
aVpriitliivak
p167
aVsaroyanm
p168
aVgu_ng
p169
aVholgerstitz
p170
aVbesnikgeek
p171
aVFabianBliem
p172
aVmatejagrobelnik
p173
aVa_koessler
p174
aV3dmg
p175
aVaigy85
p176
aV_marusch_
p177
aVRudolfoBrandao
p178
aVN3MO0O0O
p179
aVecxio
p180
aVAlucard4410
p181
aVph_hunger
p182
aVonoditelj
p183
aVJackescript
p184
aVJobRockerCom
p185
aVgerhard_ghl
p186
aVHemmaMarlene
p187
aVSternschnuppe01
p188
aVsamkruc
p189
aVarvie_latina
p190
aVtimogoiss
p191
aVwwweb4you
p192
aV_ldaril_
p193
aVdikethelmak
p194
aVroses092414
p195
aVIamAyomiDotun
p196
aVColucciLui
p197
aVkelra2002
p198
aVderquex
p199
aVMKlestil
p200
aVdeltapilz
p201
aVtobsut
p202
aVMargitBerner
p203
aVdready359
p204
aVderbrutkasten
p205
aVmkr4khofer
p206
aVSCCVienna
p207
aVhgi_systems
p208
aVisantoshv
p209
aVStefanKert
p210
aVmano_emerson
p211
aVOlvisGil
p212
aVappsbyjohn
p213
aVCengicAlen
p214
aVprivateer
p215
aVThinkPlusAction
p216
aVHertasTweet
p217
aVzoltiot
p218
aVmingus_x
p219
aVpatricksinger05
p220
aVBergerSandro94
p221
aVsimic_mihael
p222
aVface_t_s
p223
aVcognoid
p224
aV_Kanevry
p225
aVHuseinovicMirza
p226
aVLBoehringer
p227
aVflorianbachmann
p228
aVMeckiAuer
p229
aVmpgirro
p230
aVPhilipNemeth
p231
aVtacd71
p232
aValexgoeschl
p233
aVchrii99
p234
aVSchmid_Bernhard
p235
aVdviper01
p236
aVhannestschuertz
p237
aVShTeng
p238
aVFatimaAsamee
p239
aVsmashkins
p240
aVKaikoura13
p241
aVmfischelmayer
p242
aVrezaanwar_
p243
aVfranzenstain
p244
aVS_Schwarzgruber
p245
aVmenzel42
p246
aVsquarechris
p247
aVivail_
p248
aVautvienna
p249
aV8bitsAreEnough
p250
aVneodesign_tv
p251
aVkatharinaseke
p252
aVthpost99
p253
aVcandamir26
p254
aVMaBu_89
p255
aVTFConsult
p256
aVpanovdev
p257
aVchrizau
p258
aVRudolfLegat
p259
aVchriso0710
p260
aV_kriss1
p261
aVschn_sim
p262
aVspeed_track
p263
aVehrphil
p264
aVAndorferMichael
p265
aVGertraudHaas1
p266
aVthebigf80
p267
aVsherucode
p268
aV82a6616218a44e4
p269
aVpetLeit
p270
aVEurocommPR_BUD
p271
aVbernhard_keprt
p272
aVFSchmidberger
p273
aVwalterra
p274
aVsynonymousrocks
p275
aVdzony88
p276
aVFilipJD
p277
aVjotadeveloper
p278
aV3_1_4_1__
p279
aVzusatzservices
p280
aViSQICert
p281
aVTenezill
p282
aVZirkusElune
p283
aVmopius
p284
aVtOMPSON
p285
aVmomdragana
p286
aVmaverik018
p287
aVPlambi01
p288
aVtiefm66
p289
aValxKnapp
p290
aVSzabJno95914605
p291
aVRohnerRalph
p292
aVhyperqwertz
p293
aVkozorezv
p294
aVbarbariiina
p295
aVSSAdevelopment
p296
aVMelpomene91
p297
aVsupersambo
p298
aV_ccoder_
p299
aVderblub
p300
aVQBisson
p301
aVHeinSnyman95
p302
aVk27269604k
p303
aVSD_Cloudy
p304
aVSofaScore
p305
aVMaxN_Mueller
p306
aVdaemon7osh
p307
aVB33_L33
p308
aVdP_brand
p309
aVmanuelmoser
p310
aVklemensz
p311
aVhiimmarcoo
p312
aVsrathgeb
p313
aVlukastillmann
p314
aVfreecodecampvie
p315
aVrolle
p316
aVwaschber79
p317
aVwerhac
p318
aVrabergerb
p319
aVdaniel_wagn3r
p320
aVtinaheidinger
p321
aVgoldamaier
p322
aVfhurnaus
p323
aVMarcus_Honkisz
p324
aVVentureTipsCom
p325
aVTheLevti
p326
aVindwirtschaft
p327
aVgottesheim
p328
aVkaltjak
p329
aVdomo_42
p330
aVgrisumaniac
p331
aVl_kiraly
p332
aVHackenbergerC
p333
aVjohnnyomair
p334
aVJMayrbaeurl
p335
aVmipelive
p336
aVAllogaSekureco
p337
aVThe_Botfather
p338
aVquetschi
p339
aVDolicElvir
p340
aVnuberion
p341
aVmerlinthekid
p342
aVpeshkira
p343
aVbunufi
p344
aVCerator
p345
aVffffffff8129ecf
p346
aVDerFichtl
p347
aVsoelli
p348
aVZirrusCloud
p349
aVFozzysWelt
p350
aVzerok
p351
aVneeg
p352
aVfabiandev
p353
aVErnstHerko
p354
aVkULOmi
p355
aVtarzanfromjungl
p356
aVsnoato
p357
aVLeoWillner
p358
aVdanielloipsum
p359
aVmslabina
p360
aVoStar33
p361
aVtonichatbot
p362
aVStjepkoCordas
p363
aVFr4nky333
p364
aVwoifei
p365
aVaslece
p366
aVj_ma
p367
aVurukalo
p368
aVedhzsz
p369
aVderkoe
p370
aVchrisika
p371
aVProfBaltazar_
p372
aVliamtarpey
p373
aVEurocommPR_LJ
p374
aVdianaisadina
p375
aVHektek01
p376
aVyelsterdigital
p377
aVChrisRDavid
p378
aVbenHeid93
p379
aVgemane
p380
aVmrjaycheezy
p381
aVweixelbaumer
p382
aVGunharth
p383
aVscheinem
p384
aVstefanwels
p385
aVmarcinwalocha
p386
aVb_hagmann
p387
aVzothynine
p388
aVDOMDevelopers
p389
aVjbwav
p390
aVYoannFleuryDev
p391
aVvisiongeist
p392
aVasoluto
p393
aVCristianDanBara
p394
aVRaudelWeb
p395
aVbechtweets
p396
aVhornigkaffee
p397
aVmijacevzar
p398
aVCrazmiss
p399
aVBernhardGa
p400
aVrstankov
p401
aVmwtrager
p402
aVverakarl94
p403
aVrichieswork
p404
aVlkrempler
p405
aVramzesenok
p406
aVphreis
p407
aVfpayes11
p408
aVdefuex
p409
aVJorgeOrtega
p410
aVunXspoken
p411
aVjabranr
p412
aVAllyGraham1
p413
aVyalematta
p414
aVSundeepToor
p415
aVdine
p416
aVw_bertl
p417
aValexdraxler81
p418
aVjmlero
p419
aVdavid_257
p420
aVjuristr
p421
aVnasatya
p422
aVproactivaudio
p423
aVYusadolat
p424
aVjavebratt
p425
aVANECONat
p426
aVAntonioStorni
p427
aVhejfaisal
p428
aVv6shell
p429
aVScofieldVIA
p430
aVp_mbanugo
p431
aVskinnyFlamingo
p432
aVgeeballer_
p433
aVHartiface
p434
aVsuresammie
p435
aVmet_neuratec
p436
aVSariaFlorian
p437
aVAnastasiaMobi
p438
aVMart1n8891
p439
aVcodefearingguy
p440
aVfabiant7t
p441
aVbastu9m
p442
aVDevOfSuccess
p443
aVJeanFred
p444
aVpekiZG
p445
aVCoderSpaghetti
p446
aVwmgaca
p447
aVDaveHog1981
p448
aVMOPsocial
p449
aVLeo_Molatore
p450
aVwebcampzagreb
p451
aVmclion
p452
aVstevesaemmang
p453
aVCodeInBit
p454
aVinasaabrina
p455
aVDZone_Michael_T
p456
aVnurkenner
p457
aVWeichen666
p458
aVMasini_Joe
p459
aVsebapighi
p460
aVnetzvagabund
p461
aValpi
p462
aVkybernetes77
p463
aVdlaxar
p464
aVAndreas_2323
p465
aVpetschep
p466
aVUltrahackHQ
p467
aVspeedinvest
p468
aVbfuisz
p469
aVRichardPayer
p470
aVchrisminnick
p471
aVb1rkh0ff
p472
aVBilbaoInes
p473
aVDeiphobe8
p474
aVtechjardine
p475
aVpeelandsee
p476
aVmikeroneer
p477
aVGlaserGeorg
p478
aVgriesx
p479
aVajithrnayak
p480
aVMagdalenaKojic2
p481
aVSchuetzST
p482
aVpaololaurenti
p483
aVBettina_Maria_
p484
aVSPARKmostar
p485
aVovi_indrei
p486
aVHeBoTek1
p487
aVsaschazar
p488
aVzischwtf
p489
aVPorsche_IT
p490
aVtekgurl_kayla
p491
aVjeangatt18
p492
aVz1c0
p493
aVcrucio14
p494
aVFrau_Kraus
p495
aVWitti
p496
aVkommen
p497
aVluiseduardoglez
p498
aVsmyhgbg
p499
aVnaidazekic
p500
aVmatijarijavec
p501
aVanatom5
p502
aVRKAMollett
p503
aVT_Goldberger
p504
aVdija_sternchen
p505
aVecosioHQ
p506
aVstefanmoosbauer
p507
aVwuz23
p508
aVkultiviert_ch
p509
aVSMartin9496
p510
aVawsbosnia
p511
aVelkeschiffer
p512
aVadnanrahic
p513
aVenstyled
p514
aVbinderchri_com
p515
aVandihit
p516
aVlukleDev
p517
aVEHalebic
p518
aVpistenprinz
p519
aVaschlapsi
p520
aVaaanfang
p521
aVmamk2
p522
aVpappkamerad
p523
aVRusicRade
p524
aVmartinpauer
p525
aVVegimHasani
p526
aVGue_Inz
p527
aVbobijanson
p528
aVexi_navarrete
p529
aVToH_82
p530
aVwebmaxru
p531
aVCarlosRclaro
p532
aVHoangNkieuG
p533
aVNik_Cy
p534
aVagraebe
p535
aValex_ortner
p536
aVMonkeyWGlasses
p537
aVarditmustafaraj
p538
aVsimon_rsp
p539
aVTobiasPils
p540
aVmshert
p541
aVobrhmbrgr
p542
aVspotlessben
p543
aVElisaleh1
p544
aVsctrunner
p545
aVmcallistersean
p546
aVaerdeo773
p547
aVSchIsabella
p548
aVIanIsSoAwesome
p549
aVChrisiSom
p550
aVMattDiMu
p551
aVLukasRplus
p552
aVlinusine
p553
aVoberhamsi
p554
aVfranDayz
p555
aVchris_noring
p556
aVobermannlukas
p557
aVWriteNowNa
p558
aVDorisRaimann
p559
aVKaiserTweeting
p560
aVmatisscz
p561
aVmihai_sebea
p562
aVdaniel_mroczka
p563
aVrettetdemdativ
p564
aVMina_rdn
p565
aVvirginio_mm
p566
aVStamsterS
p567
aVchikerash
p568
aVdrugarce
p569
aVswet_prante
p570
aVJSonic7
p571
aVLeighaNotLeia
p572
aVtammybutow
p573
aVevilyeti
p574
aVyung_schwiez
p575
aVJosoSXY
p576
aVmrcryn
p577
aVinfinumco
p578
aVs_garavusa
p579
aVattentionfox
p580
aVfeelgood33
p581
aVWebentwicklerAt
p582
aVdomagojmicic
p583
aVMarecskoK
p584
aVEZubovic
p585
aVzsuzsanna_trd
p586
aVvasic_barbara
p587
aV7gjTTM53Hzbm3Ye
p588
aVIvanJuric1989
p589
aVm_11070
p590
aVdavedussel
p591
aVrabachleitner
p592
aVtechleco
p593
aVdunja_zivic
p594
aVlsdavy
p595
aVmKotlowski
p596
aVPelikhan_WebDev
p597
aVsasstojanovic
p598
aVpagoshiak
p599
aVmmckeaveney94
p600
aVj_rubenz
p601
aVroman_zanettin
p602
aVfilip_ya
p603
aVIrena_McGregor
p604
aVimidazol255
p605
aVseniix
p606
aVvoja_gasic
p607
aVfortekns
p608
aVfunnyfarmstudio
p609
aVdarkonikolic110
p610
aVBringhand
p611
aVmpoiu
p612
aVPhilippBrugner
p613
aVweXelerate
p614
aVMind7Consulting
p615
aVfilistothy
p616
aVynot009
p617
aVhochmuth1
p618
aVrolfvanroot
p619
aVcaysner
p620
aVAgfaHealthcareV
p621
aVthomaspamminger
p622
aVmsnetworkbih
p623
aVadisa_sinanovic
p624
aVIxolit
p625
aVFiDonegan
p626
aVATeftedarija
p627
aVPICS_Salzburg
p628
aVSteinwenderJ
p629
aVmzametter
p630
aVmichael_wapp
p631
aVfuturezoneat
p632
aVoliverbspies
p633
aVfritexvz
p634
aVThisIsWillSims
p635
aVtiana_grup
p636
aV__soey__
p637
aVkringal
p638
aVArnoHu
p639
aVjakobstrutz
p640
aVdarko_dujic
p641
aVEurocommPR_SA
p642
aVenzenhofer
p643
aVDamirSvrtan
p644
aVannatbanana94
p645
aVwotra
p646
aVFOEXplugins
p647
aVnowagil
p648
aVzeljkaVB
p649
aVmitsuhiko
p650
aVweb_peppers
p651
aVbesbes
p652
aVheerendarji
p653
aVrodvos
p654
aVIBMCICAustria
p655
aVSevyls
p656
aVEurocommPR_ZG
p657
aVEurocommPR_BEG
p658
aVEurocommPR_PRG
p659
aVEurocommPR
p660
aVStremitzer
p661
aVSetappCompany
p662
aVjoanna_palermo
p663
aVStefanAWarner
p664
aV0xperke
p665
aVdieManu
p666
aVtrestoa
p667
aVBeyondPixelsAT
p668
aVwkfrd
p669
aVMAMK
p670
aVstnwk
p671
aVAndreasHack
p672
aVandra_doran
p673
aVmusyyy
p674
aVGottfriedSzing
p675
aVBirgitNeumayr
p676
aVviillyana
p677
aVpeterapmcfly
p678
aV_mattre_
p679
aVRalfTometschek
p680
aVb_mayerhofer
p681
aVsamzhaocn
p682
aVjpeer264
p683
aVStayOnTheMove
p684
aVusersnap
p685
aVmaineme59671951
p686
aVPSPDFKit
p687
aVCSSTeam_at
p688
aVBillSourour
p689
aVodp_AT
p690
aVKBurgstaller
p691
aVPeter_Schneider
p692
aVstartablish
p693
aVDaveBalzer
p694
aVebcclub
p695
aVogdwien
p696
aVBrigitteLutz
p697
aVrealsubbuj
p698
aVNSchoepper
p699
aVGeorgKoch
p700
aVwaechterloewe
p701
aVezralite
p702
aVcsandras81
p703
aVSandraDeringer1
p704
aVviennahtml
p705
aVjurihandl
p706
aVsmartninja_at
p707
aVgirlsncode
p708
aVKukaFarinha
p709
aVtom_rau
p710
aVchris50001
p711
aVbrunnertob
p712
aVndeet
p713
aVluchaosat
p714
aVcrebuh
p715
aVsansdevi
p716
aVCptByte
p717
aVcomatic
p718
aVOATazl
p719
aVOmranic
p720
aVStoremeAT
p721
aVTBoigner
p722
aVfreuleinkorksi
p723
aVbukaznik
p724
aVmraaroncruz
p725
aVdodo_dw
p726
aVwebmozart
p727
aVcuddleism
p728
aVbizarrochris
p729
aVjulie_has
p730
aVMichalRucinsky
p731
aVSchackiCh
p732
aVUT11
p733
aVhiDominik
p734
aVvviippola
p735
aVmountain_code
p736
aVlctdnl
p737
aVjouschcom
p738
aVhdanyo
p739
aVZdravkovicIgor
p740
aVcs_mexx
p741
aVschuchalexander
p742
aVstpue
p743
aVhochchristoph
p744
aVraablx
p745
aVsteipete
p746
aVgnomx
p747
aVFjodos
p748
aVanyline_io
p749
aVstefanselig
p750
aVtonka_2000
p751
aVmario_sommer
p752
aV_klausi_
p753
aVmindmeister
p754
aVPedro_MSDias
p755
aVRobert_Axelsen
p756
aVtrackingcarina
p757
aVgodhjemmeside
p758
aVsimionhurghis
p759
aVpaulroho
p760
aVHBItwi
p761
aVbountin
p762
aVfr3ino
p763
aVFpgaJob
p764
aVxeno_at
p765
aV0xC5E3
p766
aVdcolonv
p767
aVnicokaiser
p768
aVthochguertel
p769
aVelectrobabe
p770
aVchefbabeAt
p771
aVmihohl
p772
aVbbarbo20
p773
aV1korda
p774
aVflecki89
p775
aVwearewebclerks
p776
aVMatthiasMelesch
p777
aVstatic_revival
p778
aVKlemensHandler
p779
aVMarkusWagner
p780
aVWeeb2e
p781
aVrubicon_it
p782
aVReactVienna
p783
aVAoiiJesse
p784
aVthisisgordon
p785
aVmhlick
p786
aVFloppyNotFound
p787
aVDirk_Lukaschik
p788
aVxEnergyshock
p789
aVFARBSTRAKT
p790
aVbrachycera
p791
aVJsConfs
p792
aVepunkt_com
p793
aVdiplo_arts
p794
aVMarioSparrer
p795
aVAddnanMulalic
p796
aVDerMachacek
p797
aVViennaPHP
p798
aVSchulz_Martin
p799
aVNadaLazovic1
p800
aVleichtgemachtat
p801
aVRolandRust
p802
aVdr_erych
p803
aVFighta88
p804
aVMichaelWieland2
p805
aVwkla01
p806
aVElizaZett
p807
aVACADEMY387
p808
aVkertal_tech
p809
aVanahoch1
p810
aV_klemensH
p811
aVPeterAuer_at
p812
aVwagca
p813
aVbtibor91
p814
aVrandomnoise_org
p815
aVreiter_jakob
p816
aVstefanheimann09
p817
aVthomashiebl
p818
aVbenebun
p819
aVohrwurm_AT
p820
aV85a47fb2cc6f442
p821
aVTinaNura
p822
aVinternetztube
p823
aVoiebu
p824
aVsharifsbeat
p825
aVdiesocialisten
p826
aVfiRReblader
p827
aVtoolsberlin
p828
aVdiamonddogs
p829
aV__tosh
p830
aVwo_sto
p831
aVchristophrumpel
p832
aVaofner
p833
aVmarionetzer
p834
aVNatalieMN2407
p835
aVkschiffl
p836
aVcldrr
p837
aVseadahmetovic
p838
aVbenruschin
p839
aVCodebryo
p840
aVreinhold_b
p841
aVrescueAnn
p842
aVbndktsty
p843
aVOE8CLR
p844
a.